

Microchip MPLAB XC8 Assembler V2.31 build 20201012212115 
                                                                                               Fri Mar 05 11:57:38 2021

Microchip MPLAB XC8 C Compiler v2.31 (Free license) build 20201012212115 Og1 
     1                           	processor	16F15355
     2                           	pagewidth 120
     3                           	opt	flic
     4                           	psect	idataCOMMON,global,class=CODE,delta=2,noexec
     5                           	psect	nvBANK0,global,class=BANK0,space=1,delta=1,noexec
     6                           	psect	cinit,global,class=CODE,merge=1,delta=2
     7                           	psect	bssCOMMON,global,class=COMMON,space=1,delta=1,noexec
     8                           	psect	dataCOMMON,global,class=COMMON,space=1,delta=1,noexec
     9                           	psect	bssBANK0,global,class=BANK0,space=1,delta=1,noexec
    10                           	psect	clrtext,global,class=CODE,delta=2
    11                           	psect	cstackCOMMON,global,class=COMMON,space=1,delta=1,noexec
    12                           	psect	cstackBANK0,global,class=BANK0,space=1,delta=1,noexec
    13                           	psect	maintext,global,class=CODE,merge=1,split=1,delta=2
    14                           	psect	text1,local,class=CODE,merge=1,delta=2
    15                           	psect	text2,local,class=CODE,merge=1,delta=2
    16                           	psect	text3,local,class=CODE,merge=1,delta=2
    17                           	psect	text4,local,class=CODE,merge=1,delta=2
    18                           	psect	text5,local,class=CODE,merge=1,delta=2
    19                           	psect	text6,local,class=CODE,merge=1,delta=2
    20                           	psect	text7,local,class=CODE,merge=1,delta=2
    21                           	psect	text8,local,class=CODE,merge=1,delta=2
    22                           	psect	text9,local,class=CODE,merge=1,delta=2
    23                           	psect	text10,local,class=CODE,merge=1,delta=2
    24                           	psect	text11,local,class=CODE,merge=1,delta=2
    25                           	psect	text12,local,class=CODE,merge=1,delta=2
    26                           	psect	text13,local,class=CODE,merge=1,delta=2
    27                           	psect	text14,local,class=CODE,merge=1,delta=2
    28                           	psect	text15,local,class=CODE,merge=1,delta=2
    29                           	psect	text16,local,class=CODE,merge=1,delta=2
    30                           	psect	text17,local,class=CODE,merge=1,delta=2
    31                           	psect	text18,local,class=CODE,merge=1,delta=2
    32                           	psect	text19,local,class=CODE,merge=1,delta=2
    33                           	psect	text20,local,class=CODE,merge=1,delta=2
    34                           	psect	intentry,global,class=CODE,delta=2
    35                           	psect	text22,local,class=CODE,merge=1,delta=2
    36                           	psect	text23,local,class=CODE,merge=1,delta=2
    37                           	psect	text24,local,class=CODE,merge=1,delta=2
    38                           	psect	config,global,abs,ovrld,class=CONFIG,space=4,delta=2,noexec
    39                           	dabs	1,0x7E,2
    40  0000                     
    41                           ; Version 2.30
    42                           ; Generated 15/09/2020 GMT
    43                           ; 
    44                           ; Copyright © 2020, Microchip Technology Inc. and its subsidiaries ("Microchip")
    45                           ; All rights reserved.
    46                           ; 
    47                           ; This software is developed by Microchip Technology Inc. and its subsidiaries ("Microch
      +                          ip").
    48                           ; 
    49                           ; Redistribution and use in source and binary forms, with or without modification, are
    50                           ; permitted provided that the following conditions are met:
    51                           ; 
    52                           ;     1. Redistributions of source code must retain the above copyright notice, this lis
      +                          t of
    53                           ;        conditions and the following disclaimer.
    54                           ; 
    55                           ;     2. Redistributions in binary form must reproduce the above copyright notice, this 
      +                          list
    56                           ;        of conditions and the following disclaimer in the documentation and/or other
    57                           ;        materials provided with the distribution. Publication is not required when
    58                           ;        this file is used in an embedded application.
    59                           ; 
    60                           ;     3. Microchip's name may not be used to endorse or promote products derived from th
      +                          is
    61                           ;        software without specific prior written permission.
    62                           ; 
    63                           ; THIS SOFTWARE IS PROVIDED BY MICROCHIP "AS IS" AND ANY EXPRESS OR IMPLIED WARRANTIES,
    64                           ; INCLUDING, BUT NOT LIMITED TO, THE IMPLIED WARRANTIES OF MERCHANTABILITY AND FITNESS F
      +                          OR
    65                           ; PURPOSE ARE DISCLAIMED.  IN NO EVENT SHALL MICROCHIP BE LIABLE FOR ANY DIRECT, INDIREC
      +                          T,
    66                           ; INCIDENTAL, SPECIAL, EXEMPLARY, OR CONSEQUENTIAL DAMAGES (INCLUDING BUT NOT LIMITED TO
    67                           ; PROCUREMENT OF SUBSTITUTE GOODS OR SERVICES; LOSS OF USE, DATA OR PROFITS; OR BUSINESS
    68                           ; INTERRUPTION) HOWSOEVER CAUSED AND ON ANY THEORY OF LIABILITY, WHETHER IN CONTRACT, ST
      +                          RICT
    69                           ; LIABILITY, OR TORT (INCLUDING NEGLIGENCE OR OTHERWISE) ARISING IN ANY WAY OUT OF THE U
      +                          SE OF
    70                           ; THIS SOFTWARE, EVEN IF ADVISED OF THE POSSIBILITY OF SUCH DAMAGE.
    71                           ; 
    72                           ; 
    73                           ; Code-generator required, PIC16F15355 Definitions
    74                           ; 
    75                           ; SFR Addresses
    76  0000                     	;# 
    77  0001                     	;# 
    78  0002                     	;# 
    79  0003                     	;# 
    80  0004                     	;# 
    81  0005                     	;# 
    82  0006                     	;# 
    83  0007                     	;# 
    84  0008                     	;# 
    85  0009                     	;# 
    86  000A                     	;# 
    87  000B                     	;# 
    88  000C                     	;# 
    89  000D                     	;# 
    90  000E                     	;# 
    91  0010                     	;# 
    92  0012                     	;# 
    93  0013                     	;# 
    94  0014                     	;# 
    95  0016                     	;# 
    96  0018                     	;# 
    97  0019                     	;# 
    98  001A                     	;# 
    99  009B                     	;# 
   100  009B                     	;# 
   101  009C                     	;# 
   102  009D                     	;# 
   103  009E                     	;# 
   104  009F                     	;# 
   105  0119                     	;# 
   106  0119                     	;# 
   107  0119                     	;# 
   108  011A                     	;# 
   109  011A                     	;# 
   110  011A                     	;# 
   111  011B                     	;# 
   112  011B                     	;# 
   113  011B                     	;# 
   114  011B                     	;# 
   115  011B                     	;# 
   116  011C                     	;# 
   117  011C                     	;# 
   118  011C                     	;# 
   119  011D                     	;# 
   120  011D                     	;# 
   121  011D                     	;# 
   122  011E                     	;# 
   123  011E                     	;# 
   124  011E                     	;# 
   125  011F                     	;# 
   126  011F                     	;# 
   127  011F                     	;# 
   128  011F                     	;# 
   129  011F                     	;# 
   130  018C                     	;# 
   131  018D                     	;# 
   132  018E                     	;# 
   133  018F                     	;# 
   134  0190                     	;# 
   135  0191                     	;# 
   136  0192                     	;# 
   137  0196                     	;# 
   138  0197                     	;# 
   139  0198                     	;# 
   140  0199                     	;# 
   141  019A                     	;# 
   142  019B                     	;# 
   143  019C                     	;# 
   144  020C                     	;# 
   145  020C                     	;# 
   146  020D                     	;# 
   147  020E                     	;# 
   148  020F                     	;# 
   149  020F                     	;# 
   150  0210                     	;# 
   151  0210                     	;# 
   152  0211                     	;# 
   153  0211                     	;# 
   154  028C                     	;# 
   155  028C                     	;# 
   156  028D                     	;# 
   157  028D                     	;# 
   158  028E                     	;# 
   159  028F                     	;# 
   160  0290                     	;# 
   161  0291                     	;# 
   162  030C                     	;# 
   163  030C                     	;# 
   164  030D                     	;# 
   165  030E                     	;# 
   166  030F                     	;# 
   167  0310                     	;# 
   168  0310                     	;# 
   169  0311                     	;# 
   170  0312                     	;# 
   171  0313                     	;# 
   172  0314                     	;# 
   173  0314                     	;# 
   174  0315                     	;# 
   175  0316                     	;# 
   176  0318                     	;# 
   177  0318                     	;# 
   178  0319                     	;# 
   179  031A                     	;# 
   180  031C                     	;# 
   181  031C                     	;# 
   182  031D                     	;# 
   183  031E                     	;# 
   184  038C                     	;# 
   185  038C                     	;# 
   186  038D                     	;# 
   187  038E                     	;# 
   188  058C                     	;# 
   189  058C                     	;# 
   190  058D                     	;# 
   191  058E                     	;# 
   192  058F                     	;# 
   193  058F                     	;# 
   194  0590                     	;# 
   195  0591                     	;# 
   196  0592                     	;# 
   197  0593                     	;# 
   198  059C                     	;# 
   199  059C                     	;# 
   200  059D                     	;# 
   201  059D                     	;# 
   202  059E                     	;# 
   203  059F                     	;# 
   204  060C                     	;# 
   205  060D                     	;# 
   206  060E                     	;# 
   207  060F                     	;# 
   208  0610                     	;# 
   209  0611                     	;# 
   210  0612                     	;# 
   211  0613                     	;# 
   212  0614                     	;# 
   213  070C                     	;# 
   214  070D                     	;# 
   215  070E                     	;# 
   216  070F                     	;# 
   217  0710                     	;# 
   218  0711                     	;# 
   219  0712                     	;# 
   220  0713                     	;# 
   221  0716                     	;# 
   222  0717                     	;# 
   223  0718                     	;# 
   224  0719                     	;# 
   225  071A                     	;# 
   226  071B                     	;# 
   227  071C                     	;# 
   228  071D                     	;# 
   229  0796                     	;# 
   230  0797                     	;# 
   231  0798                     	;# 
   232  0799                     	;# 
   233  079A                     	;# 
   234  079B                     	;# 
   235  080C                     	;# 
   236  080D                     	;# 
   237  080E                     	;# 
   238  080F                     	;# 
   239  0810                     	;# 
   240  0811                     	;# 
   241  0812                     	;# 
   242  0813                     	;# 
   243  0814                     	;# 
   244  081A                     	;# 
   245  081A                     	;# 
   246  081B                     	;# 
   247  081C                     	;# 
   248  081C                     	;# 
   249  081D                     	;# 
   250  081E                     	;# 
   251  081F                     	;# 
   252  088C                     	;# 
   253  088D                     	;# 
   254  088E                     	;# 
   255  088F                     	;# 
   256  0890                     	;# 
   257  0891                     	;# 
   258  0892                     	;# 
   259  0893                     	;# 
   260  0895                     	;# 
   261  0896                     	;# 
   262  090C                     	;# 
   263  090E                     	;# 
   264  090F                     	;# 
   265  091F                     	;# 
   266  098F                     	;# 
   267  098F                     	;# 
   268  0990                     	;# 
   269  0991                     	;# 
   270  0992                     	;# 
   271  0993                     	;# 
   272  0994                     	;# 
   273  0995                     	;# 
   274  0996                     	;# 
   275  0997                     	;# 
   276  0A19                     	;# 
   277  0A19                     	;# 
   278  0A1A                     	;# 
   279  0A1A                     	;# 
   280  0A1B                     	;# 
   281  0A1B                     	;# 
   282  0A1B                     	;# 
   283  0A1C                     	;# 
   284  0A1C                     	;# 
   285  0A1D                     	;# 
   286  0A1D                     	;# 
   287  0A1E                     	;# 
   288  0A1E                     	;# 
   289  0A1F                     	;# 
   290  0A1F                     	;# 
   291  0A1F                     	;# 
   292  1E0F                     	;# 
   293  1E10                     	;# 
   294  1E11                     	;# 
   295  1E12                     	;# 
   296  1E13                     	;# 
   297  1E14                     	;# 
   298  1E15                     	;# 
   299  1E16                     	;# 
   300  1E17                     	;# 
   301  1E18                     	;# 
   302  1E19                     	;# 
   303  1E1A                     	;# 
   304  1E1B                     	;# 
   305  1E1C                     	;# 
   306  1E1D                     	;# 
   307  1E1E                     	;# 
   308  1E1F                     	;# 
   309  1E20                     	;# 
   310  1E21                     	;# 
   311  1E22                     	;# 
   312  1E23                     	;# 
   313  1E24                     	;# 
   314  1E25                     	;# 
   315  1E26                     	;# 
   316  1E27                     	;# 
   317  1E28                     	;# 
   318  1E29                     	;# 
   319  1E2A                     	;# 
   320  1E2B                     	;# 
   321  1E2C                     	;# 
   322  1E2D                     	;# 
   323  1E2E                     	;# 
   324  1E2F                     	;# 
   325  1E30                     	;# 
   326  1E31                     	;# 
   327  1E32                     	;# 
   328  1E33                     	;# 
   329  1E34                     	;# 
   330  1E35                     	;# 
   331  1E36                     	;# 
   332  1E37                     	;# 
   333  1E8F                     	;# 
   334  1E90                     	;# 
   335  1E91                     	;# 
   336  1E92                     	;# 
   337  1E93                     	;# 
   338  1E9C                     	;# 
   339  1EA1                     	;# 
   340  1EA2                     	;# 
   341  1EB1                     	;# 
   342  1EBB                     	;# 
   343  1EBC                     	;# 
   344  1EBD                     	;# 
   345  1EBE                     	;# 
   346  1EC3                     	;# 
   347  1EC5                     	;# 
   348  1EC6                     	;# 
   349  1EC7                     	;# 
   350  1EC8                     	;# 
   351  1EC9                     	;# 
   352  1ECA                     	;# 
   353  1ECB                     	;# 
   354  1ECC                     	;# 
   355  1ECD                     	;# 
   356  1ECE                     	;# 
   357  1F10                     	;# 
   358  1F11                     	;# 
   359  1F12                     	;# 
   360  1F13                     	;# 
   361  1F14                     	;# 
   362  1F15                     	;# 
   363  1F16                     	;# 
   364  1F17                     	;# 
   365  1F18                     	;# 
   366  1F19                     	;# 
   367  1F1A                     	;# 
   368  1F1B                     	;# 
   369  1F1C                     	;# 
   370  1F1D                     	;# 
   371  1F1E                     	;# 
   372  1F1F                     	;# 
   373  1F20                     	;# 
   374  1F21                     	;# 
   375  1F22                     	;# 
   376  1F23                     	;# 
   377  1F24                     	;# 
   378  1F25                     	;# 
   379  1F26                     	;# 
   380  1F27                     	;# 
   381  1F38                     	;# 
   382  1F39                     	;# 
   383  1F3A                     	;# 
   384  1F3B                     	;# 
   385  1F3C                     	;# 
   386  1F3D                     	;# 
   387  1F3E                     	;# 
   388  1F3F                     	;# 
   389  1F43                     	;# 
   390  1F44                     	;# 
   391  1F45                     	;# 
   392  1F46                     	;# 
   393  1F47                     	;# 
   394  1F48                     	;# 
   395  1F49                     	;# 
   396  1F4A                     	;# 
   397  1F4E                     	;# 
   398  1F4F                     	;# 
   399  1F50                     	;# 
   400  1F51                     	;# 
   401  1F52                     	;# 
   402  1F53                     	;# 
   403  1F54                     	;# 
   404  1F55                     	;# 
   405  1F65                     	;# 
   406  1F68                     	;# 
   407  1F69                     	;# 
   408  1F6A                     	;# 
   409  1F6B                     	;# 
   410  1FE4                     	;# 
   411  1FE5                     	;# 
   412  1FE6                     	;# 
   413  1FE7                     	;# 
   414  1FE8                     	;# 
   415  1FE8                     	;# 
   416  1FE9                     	;# 
   417  1FEA                     	;# 
   418  1FEA                     	;# 
   419  1FEB                     	;# 
   420  1FED                     	;# 
   421  1FEE                     	;# 
   422  1FEF                     	;# 
   423  0000                     	;# 
   424  0001                     	;# 
   425  0002                     	;# 
   426  0003                     	;# 
   427  0004                     	;# 
   428  0005                     	;# 
   429  0006                     	;# 
   430  0007                     	;# 
   431  0008                     	;# 
   432  0009                     	;# 
   433  000A                     	;# 
   434  000B                     	;# 
   435  000C                     	;# 
   436  000D                     	;# 
   437  000E                     	;# 
   438  0010                     	;# 
   439  0012                     	;# 
   440  0013                     	;# 
   441  0014                     	;# 
   442  0016                     	;# 
   443  0018                     	;# 
   444  0019                     	;# 
   445  001A                     	;# 
   446  009B                     	;# 
   447  009B                     	;# 
   448  009C                     	;# 
   449  009D                     	;# 
   450  009E                     	;# 
   451  009F                     	;# 
   452  0119                     	;# 
   453  0119                     	;# 
   454  0119                     	;# 
   455  011A                     	;# 
   456  011A                     	;# 
   457  011A                     	;# 
   458  011B                     	;# 
   459  011B                     	;# 
   460  011B                     	;# 
   461  011B                     	;# 
   462  011B                     	;# 
   463  011C                     	;# 
   464  011C                     	;# 
   465  011C                     	;# 
   466  011D                     	;# 
   467  011D                     	;# 
   468  011D                     	;# 
   469  011E                     	;# 
   470  011E                     	;# 
   471  011E                     	;# 
   472  011F                     	;# 
   473  011F                     	;# 
   474  011F                     	;# 
   475  011F                     	;# 
   476  011F                     	;# 
   477  018C                     	;# 
   478  018D                     	;# 
   479  018E                     	;# 
   480  018F                     	;# 
   481  0190                     	;# 
   482  0191                     	;# 
   483  0192                     	;# 
   484  0196                     	;# 
   485  0197                     	;# 
   486  0198                     	;# 
   487  0199                     	;# 
   488  019A                     	;# 
   489  019B                     	;# 
   490  019C                     	;# 
   491  020C                     	;# 
   492  020C                     	;# 
   493  020D                     	;# 
   494  020E                     	;# 
   495  020F                     	;# 
   496  020F                     	;# 
   497  0210                     	;# 
   498  0210                     	;# 
   499  0211                     	;# 
   500  0211                     	;# 
   501  028C                     	;# 
   502  028C                     	;# 
   503  028D                     	;# 
   504  028D                     	;# 
   505  028E                     	;# 
   506  028F                     	;# 
   507  0290                     	;# 
   508  0291                     	;# 
   509  030C                     	;# 
   510  030C                     	;# 
   511  030D                     	;# 
   512  030E                     	;# 
   513  030F                     	;# 
   514  0310                     	;# 
   515  0310                     	;# 
   516  0311                     	;# 
   517  0312                     	;# 
   518  0313                     	;# 
   519  0314                     	;# 
   520  0314                     	;# 
   521  0315                     	;# 
   522  0316                     	;# 
   523  0318                     	;# 
   524  0318                     	;# 
   525  0319                     	;# 
   526  031A                     	;# 
   527  031C                     	;# 
   528  031C                     	;# 
   529  031D                     	;# 
   530  031E                     	;# 
   531  038C                     	;# 
   532  038C                     	;# 
   533  038D                     	;# 
   534  038E                     	;# 
   535  058C                     	;# 
   536  058C                     	;# 
   537  058D                     	;# 
   538  058E                     	;# 
   539  058F                     	;# 
   540  058F                     	;# 
   541  0590                     	;# 
   542  0591                     	;# 
   543  0592                     	;# 
   544  0593                     	;# 
   545  059C                     	;# 
   546  059C                     	;# 
   547  059D                     	;# 
   548  059D                     	;# 
   549  059E                     	;# 
   550  059F                     	;# 
   551  060C                     	;# 
   552  060D                     	;# 
   553  060E                     	;# 
   554  060F                     	;# 
   555  0610                     	;# 
   556  0611                     	;# 
   557  0612                     	;# 
   558  0613                     	;# 
   559  0614                     	;# 
   560  070C                     	;# 
   561  070D                     	;# 
   562  070E                     	;# 
   563  070F                     	;# 
   564  0710                     	;# 
   565  0711                     	;# 
   566  0712                     	;# 
   567  0713                     	;# 
   568  0716                     	;# 
   569  0717                     	;# 
   570  0718                     	;# 
   571  0719                     	;# 
   572  071A                     	;# 
   573  071B                     	;# 
   574  071C                     	;# 
   575  071D                     	;# 
   576  0796                     	;# 
   577  0797                     	;# 
   578  0798                     	;# 
   579  0799                     	;# 
   580  079A                     	;# 
   581  079B                     	;# 
   582  080C                     	;# 
   583  080D                     	;# 
   584  080E                     	;# 
   585  080F                     	;# 
   586  0810                     	;# 
   587  0811                     	;# 
   588  0812                     	;# 
   589  0813                     	;# 
   590  0814                     	;# 
   591  081A                     	;# 
   592  081A                     	;# 
   593  081B                     	;# 
   594  081C                     	;# 
   595  081C                     	;# 
   596  081D                     	;# 
   597  081E                     	;# 
   598  081F                     	;# 
   599  088C                     	;# 
   600  088D                     	;# 
   601  088E                     	;# 
   602  088F                     	;# 
   603  0890                     	;# 
   604  0891                     	;# 
   605  0892                     	;# 
   606  0893                     	;# 
   607  0895                     	;# 
   608  0896                     	;# 
   609  090C                     	;# 
   610  090E                     	;# 
   611  090F                     	;# 
   612  091F                     	;# 
   613  098F                     	;# 
   614  098F                     	;# 
   615  0990                     	;# 
   616  0991                     	;# 
   617  0992                     	;# 
   618  0993                     	;# 
   619  0994                     	;# 
   620  0995                     	;# 
   621  0996                     	;# 
   622  0997                     	;# 
   623  0A19                     	;# 
   624  0A19                     	;# 
   625  0A1A                     	;# 
   626  0A1A                     	;# 
   627  0A1B                     	;# 
   628  0A1B                     	;# 
   629  0A1B                     	;# 
   630  0A1C                     	;# 
   631  0A1C                     	;# 
   632  0A1D                     	;# 
   633  0A1D                     	;# 
   634  0A1E                     	;# 
   635  0A1E                     	;# 
   636  0A1F                     	;# 
   637  0A1F                     	;# 
   638  0A1F                     	;# 
   639  1E0F                     	;# 
   640  1E10                     	;# 
   641  1E11                     	;# 
   642  1E12                     	;# 
   643  1E13                     	;# 
   644  1E14                     	;# 
   645  1E15                     	;# 
   646  1E16                     	;# 
   647  1E17                     	;# 
   648  1E18                     	;# 
   649  1E19                     	;# 
   650  1E1A                     	;# 
   651  1E1B                     	;# 
   652  1E1C                     	;# 
   653  1E1D                     	;# 
   654  1E1E                     	;# 
   655  1E1F                     	;# 
   656  1E20                     	;# 
   657  1E21                     	;# 
   658  1E22                     	;# 
   659  1E23                     	;# 
   660  1E24                     	;# 
   661  1E25                     	;# 
   662  1E26                     	;# 
   663  1E27                     	;# 
   664  1E28                     	;# 
   665  1E29                     	;# 
   666  1E2A                     	;# 
   667  1E2B                     	;# 
   668  1E2C                     	;# 
   669  1E2D                     	;# 
   670  1E2E                     	;# 
   671  1E2F                     	;# 
   672  1E30                     	;# 
   673  1E31                     	;# 
   674  1E32                     	;# 
   675  1E33                     	;# 
   676  1E34                     	;# 
   677  1E35                     	;# 
   678  1E36                     	;# 
   679  1E37                     	;# 
   680  1E8F                     	;# 
   681  1E90                     	;# 
   682  1E91                     	;# 
   683  1E92                     	;# 
   684  1E93                     	;# 
   685  1E9C                     	;# 
   686  1EA1                     	;# 
   687  1EA2                     	;# 
   688  1EB1                     	;# 
   689  1EBB                     	;# 
   690  1EBC                     	;# 
   691  1EBD                     	;# 
   692  1EBE                     	;# 
   693  1EC3                     	;# 
   694  1EC5                     	;# 
   695  1EC6                     	;# 
   696  1EC7                     	;# 
   697  1EC8                     	;# 
   698  1EC9                     	;# 
   699  1ECA                     	;# 
   700  1ECB                     	;# 
   701  1ECC                     	;# 
   702  1ECD                     	;# 
   703  1ECE                     	;# 
   704  1F10                     	;# 
   705  1F11                     	;# 
   706  1F12                     	;# 
   707  1F13                     	;# 
   708  1F14                     	;# 
   709  1F15                     	;# 
   710  1F16                     	;# 
   711  1F17                     	;# 
   712  1F18                     	;# 
   713  1F19                     	;# 
   714  1F1A                     	;# 
   715  1F1B                     	;# 
   716  1F1C                     	;# 
   717  1F1D                     	;# 
   718  1F1E                     	;# 
   719  1F1F                     	;# 
   720  1F20                     	;# 
   721  1F21                     	;# 
   722  1F22                     	;# 
   723  1F23                     	;# 
   724  1F24                     	;# 
   725  1F25                     	;# 
   726  1F26                     	;# 
   727  1F27                     	;# 
   728  1F38                     	;# 
   729  1F39                     	;# 
   730  1F3A                     	;# 
   731  1F3B                     	;# 
   732  1F3C                     	;# 
   733  1F3D                     	;# 
   734  1F3E                     	;# 
   735  1F3F                     	;# 
   736  1F43                     	;# 
   737  1F44                     	;# 
   738  1F45                     	;# 
   739  1F46                     	;# 
   740  1F47                     	;# 
   741  1F48                     	;# 
   742  1F49                     	;# 
   743  1F4A                     	;# 
   744  1F4E                     	;# 
   745  1F4F                     	;# 
   746  1F50                     	;# 
   747  1F51                     	;# 
   748  1F52                     	;# 
   749  1F53                     	;# 
   750  1F54                     	;# 
   751  1F55                     	;# 
   752  1F65                     	;# 
   753  1F68                     	;# 
   754  1F69                     	;# 
   755  1F6A                     	;# 
   756  1F6B                     	;# 
   757  1FE4                     	;# 
   758  1FE5                     	;# 
   759  1FE6                     	;# 
   760  1FE7                     	;# 
   761  1FE8                     	;# 
   762  1FE8                     	;# 
   763  1FE9                     	;# 
   764  1FEA                     	;# 
   765  1FEA                     	;# 
   766  1FEB                     	;# 
   767  1FED                     	;# 
   768  1FEE                     	;# 
   769  1FEF                     	;# 
   770  0000                     	;# 
   771  0001                     	;# 
   772  0002                     	;# 
   773  0003                     	;# 
   774  0004                     	;# 
   775  0005                     	;# 
   776  0006                     	;# 
   777  0007                     	;# 
   778  0008                     	;# 
   779  0009                     	;# 
   780  000A                     	;# 
   781  000B                     	;# 
   782  000C                     	;# 
   783  000D                     	;# 
   784  000E                     	;# 
   785  0010                     	;# 
   786  0012                     	;# 
   787  0013                     	;# 
   788  0014                     	;# 
   789  0016                     	;# 
   790  0018                     	;# 
   791  0019                     	;# 
   792  001A                     	;# 
   793  009B                     	;# 
   794  009B                     	;# 
   795  009C                     	;# 
   796  009D                     	;# 
   797  009E                     	;# 
   798  009F                     	;# 
   799  0119                     	;# 
   800  0119                     	;# 
   801  0119                     	;# 
   802  011A                     	;# 
   803  011A                     	;# 
   804  011A                     	;# 
   805  011B                     	;# 
   806  011B                     	;# 
   807  011B                     	;# 
   808  011B                     	;# 
   809  011B                     	;# 
   810  011C                     	;# 
   811  011C                     	;# 
   812  011C                     	;# 
   813  011D                     	;# 
   814  011D                     	;# 
   815  011D                     	;# 
   816  011E                     	;# 
   817  011E                     	;# 
   818  011E                     	;# 
   819  011F                     	;# 
   820  011F                     	;# 
   821  011F                     	;# 
   822  011F                     	;# 
   823  011F                     	;# 
   824  018C                     	;# 
   825  018D                     	;# 
   826  018E                     	;# 
   827  018F                     	;# 
   828  0190                     	;# 
   829  0191                     	;# 
   830  0192                     	;# 
   831  0196                     	;# 
   832  0197                     	;# 
   833  0198                     	;# 
   834  0199                     	;# 
   835  019A                     	;# 
   836  019B                     	;# 
   837  019C                     	;# 
   838  020C                     	;# 
   839  020C                     	;# 
   840  020D                     	;# 
   841  020E                     	;# 
   842  020F                     	;# 
   843  020F                     	;# 
   844  0210                     	;# 
   845  0210                     	;# 
   846  0211                     	;# 
   847  0211                     	;# 
   848  028C                     	;# 
   849  028C                     	;# 
   850  028D                     	;# 
   851  028D                     	;# 
   852  028E                     	;# 
   853  028F                     	;# 
   854  0290                     	;# 
   855  0291                     	;# 
   856  030C                     	;# 
   857  030C                     	;# 
   858  030D                     	;# 
   859  030E                     	;# 
   860  030F                     	;# 
   861  0310                     	;# 
   862  0310                     	;# 
   863  0311                     	;# 
   864  0312                     	;# 
   865  0313                     	;# 
   866  0314                     	;# 
   867  0314                     	;# 
   868  0315                     	;# 
   869  0316                     	;# 
   870  0318                     	;# 
   871  0318                     	;# 
   872  0319                     	;# 
   873  031A                     	;# 
   874  031C                     	;# 
   875  031C                     	;# 
   876  031D                     	;# 
   877  031E                     	;# 
   878  038C                     	;# 
   879  038C                     	;# 
   880  038D                     	;# 
   881  038E                     	;# 
   882  058C                     	;# 
   883  058C                     	;# 
   884  058D                     	;# 
   885  058E                     	;# 
   886  058F                     	;# 
   887  058F                     	;# 
   888  0590                     	;# 
   889  0591                     	;# 
   890  0592                     	;# 
   891  0593                     	;# 
   892  059C                     	;# 
   893  059C                     	;# 
   894  059D                     	;# 
   895  059D                     	;# 
   896  059E                     	;# 
   897  059F                     	;# 
   898  060C                     	;# 
   899  060D                     	;# 
   900  060E                     	;# 
   901  060F                     	;# 
   902  0610                     	;# 
   903  0611                     	;# 
   904  0612                     	;# 
   905  0613                     	;# 
   906  0614                     	;# 
   907  070C                     	;# 
   908  070D                     	;# 
   909  070E                     	;# 
   910  070F                     	;# 
   911  0710                     	;# 
   912  0711                     	;# 
   913  0712                     	;# 
   914  0713                     	;# 
   915  0716                     	;# 
   916  0717                     	;# 
   917  0718                     	;# 
   918  0719                     	;# 
   919  071A                     	;# 
   920  071B                     	;# 
   921  071C                     	;# 
   922  071D                     	;# 
   923  0796                     	;# 
   924  0797                     	;# 
   925  0798                     	;# 
   926  0799                     	;# 
   927  079A                     	;# 
   928  079B                     	;# 
   929  080C                     	;# 
   930  080D                     	;# 
   931  080E                     	;# 
   932  080F                     	;# 
   933  0810                     	;# 
   934  0811                     	;# 
   935  0812                     	;# 
   936  0813                     	;# 
   937  0814                     	;# 
   938  081A                     	;# 
   939  081A                     	;# 
   940  081B                     	;# 
   941  081C                     	;# 
   942  081C                     	;# 
   943  081D                     	;# 
   944  081E                     	;# 
   945  081F                     	;# 
   946  088C                     	;# 
   947  088D                     	;# 
   948  088E                     	;# 
   949  088F                     	;# 
   950  0890                     	;# 
   951  0891                     	;# 
   952  0892                     	;# 
   953  0893                     	;# 
   954  0895                     	;# 
   955  0896                     	;# 
   956  090C                     	;# 
   957  090E                     	;# 
   958  090F                     	;# 
   959  091F                     	;# 
   960  098F                     	;# 
   961  098F                     	;# 
   962  0990                     	;# 
   963  0991                     	;# 
   964  0992                     	;# 
   965  0993                     	;# 
   966  0994                     	;# 
   967  0995                     	;# 
   968  0996                     	;# 
   969  0997                     	;# 
   970  0A19                     	;# 
   971  0A19                     	;# 
   972  0A1A                     	;# 
   973  0A1A                     	;# 
   974  0A1B                     	;# 
   975  0A1B                     	;# 
   976  0A1B                     	;# 
   977  0A1C                     	;# 
   978  0A1C                     	;# 
   979  0A1D                     	;# 
   980  0A1D                     	;# 
   981  0A1E                     	;# 
   982  0A1E                     	;# 
   983  0A1F                     	;# 
   984  0A1F                     	;# 
   985  0A1F                     	;# 
   986  1E0F                     	;# 
   987  1E10                     	;# 
   988  1E11                     	;# 
   989  1E12                     	;# 
   990  1E13                     	;# 
   991  1E14                     	;# 
   992  1E15                     	;# 
   993  1E16                     	;# 
   994  1E17                     	;# 
   995  1E18                     	;# 
   996  1E19                     	;# 
   997  1E1A                     	;# 
   998  1E1B                     	;# 
   999  1E1C                     	;# 
  1000  1E1D                     	;# 
  1001  1E1E                     	;# 
  1002  1E1F                     	;# 
  1003  1E20                     	;# 
  1004  1E21                     	;# 
  1005  1E22                     	;# 
  1006  1E23                     	;# 
  1007  1E24                     	;# 
  1008  1E25                     	;# 
  1009  1E26                     	;# 
  1010  1E27                     	;# 
  1011  1E28                     	;# 
  1012  1E29                     	;# 
  1013  1E2A                     	;# 
  1014  1E2B                     	;# 
  1015  1E2C                     	;# 
  1016  1E2D                     	;# 
  1017  1E2E                     	;# 
  1018  1E2F                     	;# 
  1019  1E30                     	;# 
  1020  1E31                     	;# 
  1021  1E32                     	;# 
  1022  1E33                     	;# 
  1023  1E34                     	;# 
  1024  1E35                     	;# 
  1025  1E36                     	;# 
  1026  1E37                     	;# 
  1027  1E8F                     	;# 
  1028  1E90                     	;# 
  1029  1E91                     	;# 
  1030  1E92                     	;# 
  1031  1E93                     	;# 
  1032  1E9C                     	;# 
  1033  1EA1                     	;# 
  1034  1EA2                     	;# 
  1035  1EB1                     	;# 
  1036  1EBB                     	;# 
  1037  1EBC                     	;# 
  1038  1EBD                     	;# 
  1039  1EBE                     	;# 
  1040  1EC3                     	;# 
  1041  1EC5                     	;# 
  1042  1EC6                     	;# 
  1043  1EC7                     	;# 
  1044  1EC8                     	;# 
  1045  1EC9                     	;# 
  1046  1ECA                     	;# 
  1047  1ECB                     	;# 
  1048  1ECC                     	;# 
  1049  1ECD                     	;# 
  1050  1ECE                     	;# 
  1051  1F10                     	;# 
  1052  1F11                     	;# 
  1053  1F12                     	;# 
  1054  1F13                     	;# 
  1055  1F14                     	;# 
  1056  1F15                     	;# 
  1057  1F16                     	;# 
  1058  1F17                     	;# 
  1059  1F18                     	;# 
  1060  1F19                     	;# 
  1061  1F1A                     	;# 
  1062  1F1B                     	;# 
  1063  1F1C                     	;# 
  1064  1F1D                     	;# 
  1065  1F1E                     	;# 
  1066  1F1F                     	;# 
  1067  1F20                     	;# 
  1068  1F21                     	;# 
  1069  1F22                     	;# 
  1070  1F23                     	;# 
  1071  1F24                     	;# 
  1072  1F25                     	;# 
  1073  1F26                     	;# 
  1074  1F27                     	;# 
  1075  1F38                     	;# 
  1076  1F39                     	;# 
  1077  1F3A                     	;# 
  1078  1F3B                     	;# 
  1079  1F3C                     	;# 
  1080  1F3D                     	;# 
  1081  1F3E                     	;# 
  1082  1F3F                     	;# 
  1083  1F43                     	;# 
  1084  1F44                     	;# 
  1085  1F45                     	;# 
  1086  1F46                     	;# 
  1087  1F47                     	;# 
  1088  1F48                     	;# 
  1089  1F49                     	;# 
  1090  1F4A                     	;# 
  1091  1F4E                     	;# 
  1092  1F4F                     	;# 
  1093  1F50                     	;# 
  1094  1F51                     	;# 
  1095  1F52                     	;# 
  1096  1F53                     	;# 
  1097  1F54                     	;# 
  1098  1F55                     	;# 
  1099  1F65                     	;# 
  1100  1F68                     	;# 
  1101  1F69                     	;# 
  1102  1F6A                     	;# 
  1103  1F6B                     	;# 
  1104  1FE4                     	;# 
  1105  1FE5                     	;# 
  1106  1FE6                     	;# 
  1107  1FE7                     	;# 
  1108  1FE8                     	;# 
  1109  1FE8                     	;# 
  1110  1FE9                     	;# 
  1111  1FEA                     	;# 
  1112  1FEA                     	;# 
  1113  1FEB                     	;# 
  1114  1FED                     	;# 
  1115  1FEE                     	;# 
  1116  1FEF                     	;# 
  1117  0000                     	;# 
  1118  0001                     	;# 
  1119  0002                     	;# 
  1120  0003                     	;# 
  1121  0004                     	;# 
  1122  0005                     	;# 
  1123  0006                     	;# 
  1124  0007                     	;# 
  1125  0008                     	;# 
  1126  0009                     	;# 
  1127  000A                     	;# 
  1128  000B                     	;# 
  1129  000C                     	;# 
  1130  000D                     	;# 
  1131  000E                     	;# 
  1132  0010                     	;# 
  1133  0012                     	;# 
  1134  0013                     	;# 
  1135  0014                     	;# 
  1136  0016                     	;# 
  1137  0018                     	;# 
  1138  0019                     	;# 
  1139  001A                     	;# 
  1140  009B                     	;# 
  1141  009B                     	;# 
  1142  009C                     	;# 
  1143  009D                     	;# 
  1144  009E                     	;# 
  1145  009F                     	;# 
  1146  0119                     	;# 
  1147  0119                     	;# 
  1148  0119                     	;# 
  1149  011A                     	;# 
  1150  011A                     	;# 
  1151  011A                     	;# 
  1152  011B                     	;# 
  1153  011B                     	;# 
  1154  011B                     	;# 
  1155  011B                     	;# 
  1156  011B                     	;# 
  1157  011C                     	;# 
  1158  011C                     	;# 
  1159  011C                     	;# 
  1160  011D                     	;# 
  1161  011D                     	;# 
  1162  011D                     	;# 
  1163  011E                     	;# 
  1164  011E                     	;# 
  1165  011E                     	;# 
  1166  011F                     	;# 
  1167  011F                     	;# 
  1168  011F                     	;# 
  1169  011F                     	;# 
  1170  011F                     	;# 
  1171  018C                     	;# 
  1172  018D                     	;# 
  1173  018E                     	;# 
  1174  018F                     	;# 
  1175  0190                     	;# 
  1176  0191                     	;# 
  1177  0192                     	;# 
  1178  0196                     	;# 
  1179  0197                     	;# 
  1180  0198                     	;# 
  1181  0199                     	;# 
  1182  019A                     	;# 
  1183  019B                     	;# 
  1184  019C                     	;# 
  1185  020C                     	;# 
  1186  020C                     	;# 
  1187  020D                     	;# 
  1188  020E                     	;# 
  1189  020F                     	;# 
  1190  020F                     	;# 
  1191  0210                     	;# 
  1192  0210                     	;# 
  1193  0211                     	;# 
  1194  0211                     	;# 
  1195  028C                     	;# 
  1196  028C                     	;# 
  1197  028D                     	;# 
  1198  028D                     	;# 
  1199  028E                     	;# 
  1200  028F                     	;# 
  1201  0290                     	;# 
  1202  0291                     	;# 
  1203  030C                     	;# 
  1204  030C                     	;# 
  1205  030D                     	;# 
  1206  030E                     	;# 
  1207  030F                     	;# 
  1208  0310                     	;# 
  1209  0310                     	;# 
  1210  0311                     	;# 
  1211  0312                     	;# 
  1212  0313                     	;# 
  1213  0314                     	;# 
  1214  0314                     	;# 
  1215  0315                     	;# 
  1216  0316                     	;# 
  1217  0318                     	;# 
  1218  0318                     	;# 
  1219  0319                     	;# 
  1220  031A                     	;# 
  1221  031C                     	;# 
  1222  031C                     	;# 
  1223  031D                     	;# 
  1224  031E                     	;# 
  1225  038C                     	;# 
  1226  038C                     	;# 
  1227  038D                     	;# 
  1228  038E                     	;# 
  1229  058C                     	;# 
  1230  058C                     	;# 
  1231  058D                     	;# 
  1232  058E                     	;# 
  1233  058F                     	;# 
  1234  058F                     	;# 
  1235  0590                     	;# 
  1236  0591                     	;# 
  1237  0592                     	;# 
  1238  0593                     	;# 
  1239  059C                     	;# 
  1240  059C                     	;# 
  1241  059D                     	;# 
  1242  059D                     	;# 
  1243  059E                     	;# 
  1244  059F                     	;# 
  1245  060C                     	;# 
  1246  060D                     	;# 
  1247  060E                     	;# 
  1248  060F                     	;# 
  1249  0610                     	;# 
  1250  0611                     	;# 
  1251  0612                     	;# 
  1252  0613                     	;# 
  1253  0614                     	;# 
  1254  070C                     	;# 
  1255  070D                     	;# 
  1256  070E                     	;# 
  1257  070F                     	;# 
  1258  0710                     	;# 
  1259  0711                     	;# 
  1260  0712                     	;# 
  1261  0713                     	;# 
  1262  0716                     	;# 
  1263  0717                     	;# 
  1264  0718                     	;# 
  1265  0719                     	;# 
  1266  071A                     	;# 
  1267  071B                     	;# 
  1268  071C                     	;# 
  1269  071D                     	;# 
  1270  0796                     	;# 
  1271  0797                     	;# 
  1272  0798                     	;# 
  1273  0799                     	;# 
  1274  079A                     	;# 
  1275  079B                     	;# 
  1276  080C                     	;# 
  1277  080D                     	;# 
  1278  080E                     	;# 
  1279  080F                     	;# 
  1280  0810                     	;# 
  1281  0811                     	;# 
  1282  0812                     	;# 
  1283  0813                     	;# 
  1284  0814                     	;# 
  1285  081A                     	;# 
  1286  081A                     	;# 
  1287  081B                     	;# 
  1288  081C                     	;# 
  1289  081C                     	;# 
  1290  081D                     	;# 
  1291  081E                     	;# 
  1292  081F                     	;# 
  1293  088C                     	;# 
  1294  088D                     	;# 
  1295  088E                     	;# 
  1296  088F                     	;# 
  1297  0890                     	;# 
  1298  0891                     	;# 
  1299  0892                     	;# 
  1300  0893                     	;# 
  1301  0895                     	;# 
  1302  0896                     	;# 
  1303  090C                     	;# 
  1304  090E                     	;# 
  1305  090F                     	;# 
  1306  091F                     	;# 
  1307  098F                     	;# 
  1308  098F                     	;# 
  1309  0990                     	;# 
  1310  0991                     	;# 
  1311  0992                     	;# 
  1312  0993                     	;# 
  1313  0994                     	;# 
  1314  0995                     	;# 
  1315  0996                     	;# 
  1316  0997                     	;# 
  1317  0A19                     	;# 
  1318  0A19                     	;# 
  1319  0A1A                     	;# 
  1320  0A1A                     	;# 
  1321  0A1B                     	;# 
  1322  0A1B                     	;# 
  1323  0A1B                     	;# 
  1324  0A1C                     	;# 
  1325  0A1C                     	;# 
  1326  0A1D                     	;# 
  1327  0A1D                     	;# 
  1328  0A1E                     	;# 
  1329  0A1E                     	;# 
  1330  0A1F                     	;# 
  1331  0A1F                     	;# 
  1332  0A1F                     	;# 
  1333  1E0F                     	;# 
  1334  1E10                     	;# 
  1335  1E11                     	;# 
  1336  1E12                     	;# 
  1337  1E13                     	;# 
  1338  1E14                     	;# 
  1339  1E15                     	;# 
  1340  1E16                     	;# 
  1341  1E17                     	;# 
  1342  1E18                     	;# 
  1343  1E19                     	;# 
  1344  1E1A                     	;# 
  1345  1E1B                     	;# 
  1346  1E1C                     	;# 
  1347  1E1D                     	;# 
  1348  1E1E                     	;# 
  1349  1E1F                     	;# 
  1350  1E20                     	;# 
  1351  1E21                     	;# 
  1352  1E22                     	;# 
  1353  1E23                     	;# 
  1354  1E24                     	;# 
  1355  1E25                     	;# 
  1356  1E26                     	;# 
  1357  1E27                     	;# 
  1358  1E28                     	;# 
  1359  1E29                     	;# 
  1360  1E2A                     	;# 
  1361  1E2B                     	;# 
  1362  1E2C                     	;# 
  1363  1E2D                     	;# 
  1364  1E2E                     	;# 
  1365  1E2F                     	;# 
  1366  1E30                     	;# 
  1367  1E31                     	;# 
  1368  1E32                     	;# 
  1369  1E33                     	;# 
  1370  1E34                     	;# 
  1371  1E35                     	;# 
  1372  1E36                     	;# 
  1373  1E37                     	;# 
  1374  1E8F                     	;# 
  1375  1E90                     	;# 
  1376  1E91                     	;# 
  1377  1E92                     	;# 
  1378  1E93                     	;# 
  1379  1E9C                     	;# 
  1380  1EA1                     	;# 
  1381  1EA2                     	;# 
  1382  1EB1                     	;# 
  1383  1EBB                     	;# 
  1384  1EBC                     	;# 
  1385  1EBD                     	;# 
  1386  1EBE                     	;# 
  1387  1EC3                     	;# 
  1388  1EC5                     	;# 
  1389  1EC6                     	;# 
  1390  1EC7                     	;# 
  1391  1EC8                     	;# 
  1392  1EC9                     	;# 
  1393  1ECA                     	;# 
  1394  1ECB                     	;# 
  1395  1ECC                     	;# 
  1396  1ECD                     	;# 
  1397  1ECE                     	;# 
  1398  1F10                     	;# 
  1399  1F11                     	;# 
  1400  1F12                     	;# 
  1401  1F13                     	;# 
  1402  1F14                     	;# 
  1403  1F15                     	;# 
  1404  1F16                     	;# 
  1405  1F17                     	;# 
  1406  1F18                     	;# 
  1407  1F19                     	;# 
  1408  1F1A                     	;# 
  1409  1F1B                     	;# 
  1410  1F1C                     	;# 
  1411  1F1D                     	;# 
  1412  1F1E                     	;# 
  1413  1F1F                     	;# 
  1414  1F20                     	;# 
  1415  1F21                     	;# 
  1416  1F22                     	;# 
  1417  1F23                     	;# 
  1418  1F24                     	;# 
  1419  1F25                     	;# 
  1420  1F26                     	;# 
  1421  1F27                     	;# 
  1422  1F38                     	;# 
  1423  1F39                     	;# 
  1424  1F3A                     	;# 
  1425  1F3B                     	;# 
  1426  1F3C                     	;# 
  1427  1F3D                     	;# 
  1428  1F3E                     	;# 
  1429  1F3F                     	;# 
  1430  1F43                     	;# 
  1431  1F44                     	;# 
  1432  1F45                     	;# 
  1433  1F46                     	;# 
  1434  1F47                     	;# 
  1435  1F48                     	;# 
  1436  1F49                     	;# 
  1437  1F4A                     	;# 
  1438  1F4E                     	;# 
  1439  1F4F                     	;# 
  1440  1F50                     	;# 
  1441  1F51                     	;# 
  1442  1F52                     	;# 
  1443  1F53                     	;# 
  1444  1F54                     	;# 
  1445  1F55                     	;# 
  1446  1F65                     	;# 
  1447  1F68                     	;# 
  1448  1F69                     	;# 
  1449  1F6A                     	;# 
  1450  1F6B                     	;# 
  1451  1FE4                     	;# 
  1452  1FE5                     	;# 
  1453  1FE6                     	;# 
  1454  1FE7                     	;# 
  1455  1FE8                     	;# 
  1456  1FE8                     	;# 
  1457  1FE9                     	;# 
  1458  1FEA                     	;# 
  1459  1FEA                     	;# 
  1460  1FEB                     	;# 
  1461  1FED                     	;# 
  1462  1FEE                     	;# 
  1463  1FEF                     	;# 
  1464  0000                     	;# 
  1465  0001                     	;# 
  1466  0002                     	;# 
  1467  0003                     	;# 
  1468  0004                     	;# 
  1469  0005                     	;# 
  1470  0006                     	;# 
  1471  0007                     	;# 
  1472  0008                     	;# 
  1473  0009                     	;# 
  1474  000A                     	;# 
  1475  000B                     	;# 
  1476  000C                     	;# 
  1477  000D                     	;# 
  1478  000E                     	;# 
  1479  0010                     	;# 
  1480  0012                     	;# 
  1481  0013                     	;# 
  1482  0014                     	;# 
  1483  0016                     	;# 
  1484  0018                     	;# 
  1485  0019                     	;# 
  1486  001A                     	;# 
  1487  009B                     	;# 
  1488  009B                     	;# 
  1489  009C                     	;# 
  1490  009D                     	;# 
  1491  009E                     	;# 
  1492  009F                     	;# 
  1493  0119                     	;# 
  1494  0119                     	;# 
  1495  0119                     	;# 
  1496  011A                     	;# 
  1497  011A                     	;# 
  1498  011A                     	;# 
  1499  011B                     	;# 
  1500  011B                     	;# 
  1501  011B                     	;# 
  1502  011B                     	;# 
  1503  011B                     	;# 
  1504  011C                     	;# 
  1505  011C                     	;# 
  1506  011C                     	;# 
  1507  011D                     	;# 
  1508  011D                     	;# 
  1509  011D                     	;# 
  1510  011E                     	;# 
  1511  011E                     	;# 
  1512  011E                     	;# 
  1513  011F                     	;# 
  1514  011F                     	;# 
  1515  011F                     	;# 
  1516  011F                     	;# 
  1517  011F                     	;# 
  1518  018C                     	;# 
  1519  018D                     	;# 
  1520  018E                     	;# 
  1521  018F                     	;# 
  1522  0190                     	;# 
  1523  0191                     	;# 
  1524  0192                     	;# 
  1525  0196                     	;# 
  1526  0197                     	;# 
  1527  0198                     	;# 
  1528  0199                     	;# 
  1529  019A                     	;# 
  1530  019B                     	;# 
  1531  019C                     	;# 
  1532  020C                     	;# 
  1533  020C                     	;# 
  1534  020D                     	;# 
  1535  020E                     	;# 
  1536  020F                     	;# 
  1537  020F                     	;# 
  1538  0210                     	;# 
  1539  0210                     	;# 
  1540  0211                     	;# 
  1541  0211                     	;# 
  1542  028C                     	;# 
  1543  028C                     	;# 
  1544  028D                     	;# 
  1545  028D                     	;# 
  1546  028E                     	;# 
  1547  028F                     	;# 
  1548  0290                     	;# 
  1549  0291                     	;# 
  1550  030C                     	;# 
  1551  030C                     	;# 
  1552  030D                     	;# 
  1553  030E                     	;# 
  1554  030F                     	;# 
  1555  0310                     	;# 
  1556  0310                     	;# 
  1557  0311                     	;# 
  1558  0312                     	;# 
  1559  0313                     	;# 
  1560  0314                     	;# 
  1561  0314                     	;# 
  1562  0315                     	;# 
  1563  0316                     	;# 
  1564  0318                     	;# 
  1565  0318                     	;# 
  1566  0319                     	;# 
  1567  031A                     	;# 
  1568  031C                     	;# 
  1569  031C                     	;# 
  1570  031D                     	;# 
  1571  031E                     	;# 
  1572  038C                     	;# 
  1573  038C                     	;# 
  1574  038D                     	;# 
  1575  038E                     	;# 
  1576  058C                     	;# 
  1577  058C                     	;# 
  1578  058D                     	;# 
  1579  058E                     	;# 
  1580  058F                     	;# 
  1581  058F                     	;# 
  1582  0590                     	;# 
  1583  0591                     	;# 
  1584  0592                     	;# 
  1585  0593                     	;# 
  1586  059C                     	;# 
  1587  059C                     	;# 
  1588  059D                     	;# 
  1589  059D                     	;# 
  1590  059E                     	;# 
  1591  059F                     	;# 
  1592  060C                     	;# 
  1593  060D                     	;# 
  1594  060E                     	;# 
  1595  060F                     	;# 
  1596  0610                     	;# 
  1597  0611                     	;# 
  1598  0612                     	;# 
  1599  0613                     	;# 
  1600  0614                     	;# 
  1601  070C                     	;# 
  1602  070D                     	;# 
  1603  070E                     	;# 
  1604  070F                     	;# 
  1605  0710                     	;# 
  1606  0711                     	;# 
  1607  0712                     	;# 
  1608  0713                     	;# 
  1609  0716                     	;# 
  1610  0717                     	;# 
  1611  0718                     	;# 
  1612  0719                     	;# 
  1613  071A                     	;# 
  1614  071B                     	;# 
  1615  071C                     	;# 
  1616  071D                     	;# 
  1617  0796                     	;# 
  1618  0797                     	;# 
  1619  0798                     	;# 
  1620  0799                     	;# 
  1621  079A                     	;# 
  1622  079B                     	;# 
  1623  080C                     	;# 
  1624  080D                     	;# 
  1625  080E                     	;# 
  1626  080F                     	;# 
  1627  0810                     	;# 
  1628  0811                     	;# 
  1629  0812                     	;# 
  1630  0813                     	;# 
  1631  0814                     	;# 
  1632  081A                     	;# 
  1633  081A                     	;# 
  1634  081B                     	;# 
  1635  081C                     	;# 
  1636  081C                     	;# 
  1637  081D                     	;# 
  1638  081E                     	;# 
  1639  081F                     	;# 
  1640  088C                     	;# 
  1641  088D                     	;# 
  1642  088E                     	;# 
  1643  088F                     	;# 
  1644  0890                     	;# 
  1645  0891                     	;# 
  1646  0892                     	;# 
  1647  0893                     	;# 
  1648  0895                     	;# 
  1649  0896                     	;# 
  1650  090C                     	;# 
  1651  090E                     	;# 
  1652  090F                     	;# 
  1653  091F                     	;# 
  1654  098F                     	;# 
  1655  098F                     	;# 
  1656  0990                     	;# 
  1657  0991                     	;# 
  1658  0992                     	;# 
  1659  0993                     	;# 
  1660  0994                     	;# 
  1661  0995                     	;# 
  1662  0996                     	;# 
  1663  0997                     	;# 
  1664  0A19                     	;# 
  1665  0A19                     	;# 
  1666  0A1A                     	;# 
  1667  0A1A                     	;# 
  1668  0A1B                     	;# 
  1669  0A1B                     	;# 
  1670  0A1B                     	;# 
  1671  0A1C                     	;# 
  1672  0A1C                     	;# 
  1673  0A1D                     	;# 
  1674  0A1D                     	;# 
  1675  0A1E                     	;# 
  1676  0A1E                     	;# 
  1677  0A1F                     	;# 
  1678  0A1F                     	;# 
  1679  0A1F                     	;# 
  1680  1E0F                     	;# 
  1681  1E10                     	;# 
  1682  1E11                     	;# 
  1683  1E12                     	;# 
  1684  1E13                     	;# 
  1685  1E14                     	;# 
  1686  1E15                     	;# 
  1687  1E16                     	;# 
  1688  1E17                     	;# 
  1689  1E18                     	;# 
  1690  1E19                     	;# 
  1691  1E1A                     	;# 
  1692  1E1B                     	;# 
  1693  1E1C                     	;# 
  1694  1E1D                     	;# 
  1695  1E1E                     	;# 
  1696  1E1F                     	;# 
  1697  1E20                     	;# 
  1698  1E21                     	;# 
  1699  1E22                     	;# 
  1700  1E23                     	;# 
  1701  1E24                     	;# 
  1702  1E25                     	;# 
  1703  1E26                     	;# 
  1704  1E27                     	;# 
  1705  1E28                     	;# 
  1706  1E29                     	;# 
  1707  1E2A                     	;# 
  1708  1E2B                     	;# 
  1709  1E2C                     	;# 
  1710  1E2D                     	;# 
  1711  1E2E                     	;# 
  1712  1E2F                     	;# 
  1713  1E30                     	;# 
  1714  1E31                     	;# 
  1715  1E32                     	;# 
  1716  1E33                     	;# 
  1717  1E34                     	;# 
  1718  1E35                     	;# 
  1719  1E36                     	;# 
  1720  1E37                     	;# 
  1721  1E8F                     	;# 
  1722  1E90                     	;# 
  1723  1E91                     	;# 
  1724  1E92                     	;# 
  1725  1E93                     	;# 
  1726  1E9C                     	;# 
  1727  1EA1                     	;# 
  1728  1EA2                     	;# 
  1729  1EB1                     	;# 
  1730  1EBB                     	;# 
  1731  1EBC                     	;# 
  1732  1EBD                     	;# 
  1733  1EBE                     	;# 
  1734  1EC3                     	;# 
  1735  1EC5                     	;# 
  1736  1EC6                     	;# 
  1737  1EC7                     	;# 
  1738  1EC8                     	;# 
  1739  1EC9                     	;# 
  1740  1ECA                     	;# 
  1741  1ECB                     	;# 
  1742  1ECC                     	;# 
  1743  1ECD                     	;# 
  1744  1ECE                     	;# 
  1745  1F10                     	;# 
  1746  1F11                     	;# 
  1747  1F12                     	;# 
  1748  1F13                     	;# 
  1749  1F14                     	;# 
  1750  1F15                     	;# 
  1751  1F16                     	;# 
  1752  1F17                     	;# 
  1753  1F18                     	;# 
  1754  1F19                     	;# 
  1755  1F1A                     	;# 
  1756  1F1B                     	;# 
  1757  1F1C                     	;# 
  1758  1F1D                     	;# 
  1759  1F1E                     	;# 
  1760  1F1F                     	;# 
  1761  1F20                     	;# 
  1762  1F21                     	;# 
  1763  1F22                     	;# 
  1764  1F23                     	;# 
  1765  1F24                     	;# 
  1766  1F25                     	;# 
  1767  1F26                     	;# 
  1768  1F27                     	;# 
  1769  1F38                     	;# 
  1770  1F39                     	;# 
  1771  1F3A                     	;# 
  1772  1F3B                     	;# 
  1773  1F3C                     	;# 
  1774  1F3D                     	;# 
  1775  1F3E                     	;# 
  1776  1F3F                     	;# 
  1777  1F43                     	;# 
  1778  1F44                     	;# 
  1779  1F45                     	;# 
  1780  1F46                     	;# 
  1781  1F47                     	;# 
  1782  1F48                     	;# 
  1783  1F49                     	;# 
  1784  1F4A                     	;# 
  1785  1F4E                     	;# 
  1786  1F4F                     	;# 
  1787  1F50                     	;# 
  1788  1F51                     	;# 
  1789  1F52                     	;# 
  1790  1F53                     	;# 
  1791  1F54                     	;# 
  1792  1F55                     	;# 
  1793  1F65                     	;# 
  1794  1F68                     	;# 
  1795  1F69                     	;# 
  1796  1F6A                     	;# 
  1797  1F6B                     	;# 
  1798  1FE4                     	;# 
  1799  1FE5                     	;# 
  1800  1FE6                     	;# 
  1801  1FE7                     	;# 
  1802  1FE8                     	;# 
  1803  1FE8                     	;# 
  1804  1FE9                     	;# 
  1805  1FEA                     	;# 
  1806  1FEA                     	;# 
  1807  1FEB                     	;# 
  1808  1FED                     	;# 
  1809  1FEE                     	;# 
  1810  1FEF                     	;# 
  1811  0000                     	;# 
  1812  0001                     	;# 
  1813  0002                     	;# 
  1814  0003                     	;# 
  1815  0004                     	;# 
  1816  0005                     	;# 
  1817  0006                     	;# 
  1818  0007                     	;# 
  1819  0008                     	;# 
  1820  0009                     	;# 
  1821  000A                     	;# 
  1822  000B                     	;# 
  1823  000C                     	;# 
  1824  000D                     	;# 
  1825  000E                     	;# 
  1826  0010                     	;# 
  1827  0012                     	;# 
  1828  0013                     	;# 
  1829  0014                     	;# 
  1830  0016                     	;# 
  1831  0018                     	;# 
  1832  0019                     	;# 
  1833  001A                     	;# 
  1834  009B                     	;# 
  1835  009B                     	;# 
  1836  009C                     	;# 
  1837  009D                     	;# 
  1838  009E                     	;# 
  1839  009F                     	;# 
  1840  0119                     	;# 
  1841  0119                     	;# 
  1842  0119                     	;# 
  1843  011A                     	;# 
  1844  011A                     	;# 
  1845  011A                     	;# 
  1846  011B                     	;# 
  1847  011B                     	;# 
  1848  011B                     	;# 
  1849  011B                     	;# 
  1850  011B                     	;# 
  1851  011C                     	;# 
  1852  011C                     	;# 
  1853  011C                     	;# 
  1854  011D                     	;# 
  1855  011D                     	;# 
  1856  011D                     	;# 
  1857  011E                     	;# 
  1858  011E                     	;# 
  1859  011E                     	;# 
  1860  011F                     	;# 
  1861  011F                     	;# 
  1862  011F                     	;# 
  1863  011F                     	;# 
  1864  011F                     	;# 
  1865  018C                     	;# 
  1866  018D                     	;# 
  1867  018E                     	;# 
  1868  018F                     	;# 
  1869  0190                     	;# 
  1870  0191                     	;# 
  1871  0192                     	;# 
  1872  0196                     	;# 
  1873  0197                     	;# 
  1874  0198                     	;# 
  1875  0199                     	;# 
  1876  019A                     	;# 
  1877  019B                     	;# 
  1878  019C                     	;# 
  1879  020C                     	;# 
  1880  020C                     	;# 
  1881  020D                     	;# 
  1882  020E                     	;# 
  1883  020F                     	;# 
  1884  020F                     	;# 
  1885  0210                     	;# 
  1886  0210                     	;# 
  1887  0211                     	;# 
  1888  0211                     	;# 
  1889  028C                     	;# 
  1890  028C                     	;# 
  1891  028D                     	;# 
  1892  028D                     	;# 
  1893  028E                     	;# 
  1894  028F                     	;# 
  1895  0290                     	;# 
  1896  0291                     	;# 
  1897  030C                     	;# 
  1898  030C                     	;# 
  1899  030D                     	;# 
  1900  030E                     	;# 
  1901  030F                     	;# 
  1902  0310                     	;# 
  1903  0310                     	;# 
  1904  0311                     	;# 
  1905  0312                     	;# 
  1906  0313                     	;# 
  1907  0314                     	;# 
  1908  0314                     	;# 
  1909  0315                     	;# 
  1910  0316                     	;# 
  1911  0318                     	;# 
  1912  0318                     	;# 
  1913  0319                     	;# 
  1914  031A                     	;# 
  1915  031C                     	;# 
  1916  031C                     	;# 
  1917  031D                     	;# 
  1918  031E                     	;# 
  1919  038C                     	;# 
  1920  038C                     	;# 
  1921  038D                     	;# 
  1922  038E                     	;# 
  1923  058C                     	;# 
  1924  058C                     	;# 
  1925  058D                     	;# 
  1926  058E                     	;# 
  1927  058F                     	;# 
  1928  058F                     	;# 
  1929  0590                     	;# 
  1930  0591                     	;# 
  1931  0592                     	;# 
  1932  0593                     	;# 
  1933  059C                     	;# 
  1934  059C                     	;# 
  1935  059D                     	;# 
  1936  059D                     	;# 
  1937  059E                     	;# 
  1938  059F                     	;# 
  1939  060C                     	;# 
  1940  060D                     	;# 
  1941  060E                     	;# 
  1942  060F                     	;# 
  1943  0610                     	;# 
  1944  0611                     	;# 
  1945  0612                     	;# 
  1946  0613                     	;# 
  1947  0614                     	;# 
  1948  070C                     	;# 
  1949  070D                     	;# 
  1950  070E                     	;# 
  1951  070F                     	;# 
  1952  0710                     	;# 
  1953  0711                     	;# 
  1954  0712                     	;# 
  1955  0713                     	;# 
  1956  0716                     	;# 
  1957  0717                     	;# 
  1958  0718                     	;# 
  1959  0719                     	;# 
  1960  071A                     	;# 
  1961  071B                     	;# 
  1962  071C                     	;# 
  1963  071D                     	;# 
  1964  0796                     	;# 
  1965  0797                     	;# 
  1966  0798                     	;# 
  1967  0799                     	;# 
  1968  079A                     	;# 
  1969  079B                     	;# 
  1970  080C                     	;# 
  1971  080D                     	;# 
  1972  080E                     	;# 
  1973  080F                     	;# 
  1974  0810                     	;# 
  1975  0811                     	;# 
  1976  0812                     	;# 
  1977  0813                     	;# 
  1978  0814                     	;# 
  1979  081A                     	;# 
  1980  081A                     	;# 
  1981  081B                     	;# 
  1982  081C                     	;# 
  1983  081C                     	;# 
  1984  081D                     	;# 
  1985  081E                     	;# 
  1986  081F                     	;# 
  1987  088C                     	;# 
  1988  088D                     	;# 
  1989  088E                     	;# 
  1990  088F                     	;# 
  1991  0890                     	;# 
  1992  0891                     	;# 
  1993  0892                     	;# 
  1994  0893                     	;# 
  1995  0895                     	;# 
  1996  0896                     	;# 
  1997  090C                     	;# 
  1998  090E                     	;# 
  1999  090F                     	;# 
  2000  091F                     	;# 
  2001  098F                     	;# 
  2002  098F                     	;# 
  2003  0990                     	;# 
  2004  0991                     	;# 
  2005  0992                     	;# 
  2006  0993                     	;# 
  2007  0994                     	;# 
  2008  0995                     	;# 
  2009  0996                     	;# 
  2010  0997                     	;# 
  2011  0A19                     	;# 
  2012  0A19                     	;# 
  2013  0A1A                     	;# 
  2014  0A1A                     	;# 
  2015  0A1B                     	;# 
  2016  0A1B                     	;# 
  2017  0A1B                     	;# 
  2018  0A1C                     	;# 
  2019  0A1C                     	;# 
  2020  0A1D                     	;# 
  2021  0A1D                     	;# 
  2022  0A1E                     	;# 
  2023  0A1E                     	;# 
  2024  0A1F                     	;# 
  2025  0A1F                     	;# 
  2026  0A1F                     	;# 
  2027  1E0F                     	;# 
  2028  1E10                     	;# 
  2029  1E11                     	;# 
  2030  1E12                     	;# 
  2031  1E13                     	;# 
  2032  1E14                     	;# 
  2033  1E15                     	;# 
  2034  1E16                     	;# 
  2035  1E17                     	;# 
  2036  1E18                     	;# 
  2037  1E19                     	;# 
  2038  1E1A                     	;# 
  2039  1E1B                     	;# 
  2040  1E1C                     	;# 
  2041  1E1D                     	;# 
  2042  1E1E                     	;# 
  2043  1E1F                     	;# 
  2044  1E20                     	;# 
  2045  1E21                     	;# 
  2046  1E22                     	;# 
  2047  1E23                     	;# 
  2048  1E24                     	;# 
  2049  1E25                     	;# 
  2050  1E26                     	;# 
  2051  1E27                     	;# 
  2052  1E28                     	;# 
  2053  1E29                     	;# 
  2054  1E2A                     	;# 
  2055  1E2B                     	;# 
  2056  1E2C                     	;# 
  2057  1E2D                     	;# 
  2058  1E2E                     	;# 
  2059  1E2F                     	;# 
  2060  1E30                     	;# 
  2061  1E31                     	;# 
  2062  1E32                     	;# 
  2063  1E33                     	;# 
  2064  1E34                     	;# 
  2065  1E35                     	;# 
  2066  1E36                     	;# 
  2067  1E37                     	;# 
  2068  1E8F                     	;# 
  2069  1E90                     	;# 
  2070  1E91                     	;# 
  2071  1E92                     	;# 
  2072  1E93                     	;# 
  2073  1E9C                     	;# 
  2074  1EA1                     	;# 
  2075  1EA2                     	;# 
  2076  1EB1                     	;# 
  2077  1EBB                     	;# 
  2078  1EBC                     	;# 
  2079  1EBD                     	;# 
  2080  1EBE                     	;# 
  2081  1EC3                     	;# 
  2082  1EC5                     	;# 
  2083  1EC6                     	;# 
  2084  1EC7                     	;# 
  2085  1EC8                     	;# 
  2086  1EC9                     	;# 
  2087  1ECA                     	;# 
  2088  1ECB                     	;# 
  2089  1ECC                     	;# 
  2090  1ECD                     	;# 
  2091  1ECE                     	;# 
  2092  1F10                     	;# 
  2093  1F11                     	;# 
  2094  1F12                     	;# 
  2095  1F13                     	;# 
  2096  1F14                     	;# 
  2097  1F15                     	;# 
  2098  1F16                     	;# 
  2099  1F17                     	;# 
  2100  1F18                     	;# 
  2101  1F19                     	;# 
  2102  1F1A                     	;# 
  2103  1F1B                     	;# 
  2104  1F1C                     	;# 
  2105  1F1D                     	;# 
  2106  1F1E                     	;# 
  2107  1F1F                     	;# 
  2108  1F20                     	;# 
  2109  1F21                     	;# 
  2110  1F22                     	;# 
  2111  1F23                     	;# 
  2112  1F24                     	;# 
  2113  1F25                     	;# 
  2114  1F26                     	;# 
  2115  1F27                     	;# 
  2116  1F38                     	;# 
  2117  1F39                     	;# 
  2118  1F3A                     	;# 
  2119  1F3B                     	;# 
  2120  1F3C                     	;# 
  2121  1F3D                     	;# 
  2122  1F3E                     	;# 
  2123  1F3F                     	;# 
  2124  1F43                     	;# 
  2125  1F44                     	;# 
  2126  1F45                     	;# 
  2127  1F46                     	;# 
  2128  1F47                     	;# 
  2129  1F48                     	;# 
  2130  1F49                     	;# 
  2131  1F4A                     	;# 
  2132  1F4E                     	;# 
  2133  1F4F                     	;# 
  2134  1F50                     	;# 
  2135  1F51                     	;# 
  2136  1F52                     	;# 
  2137  1F53                     	;# 
  2138  1F54                     	;# 
  2139  1F55                     	;# 
  2140  1F65                     	;# 
  2141  1F68                     	;# 
  2142  1F69                     	;# 
  2143  1F6A                     	;# 
  2144  1F6B                     	;# 
  2145  1FE4                     	;# 
  2146  1FE5                     	;# 
  2147  1FE6                     	;# 
  2148  1FE7                     	;# 
  2149  1FE8                     	;# 
  2150  1FE8                     	;# 
  2151  1FE9                     	;# 
  2152  1FEA                     	;# 
  2153  1FEA                     	;# 
  2154  1FEB                     	;# 
  2155  1FED                     	;# 
  2156  1FEE                     	;# 
  2157  1FEF                     	;# 
  2158                           
  2159                           	psect	idataCOMMON
  2160  01DF                     __pidataCOMMON:
  2161                           
  2162                           ;initializer for _synchron
  2163  01DF  3401               	retlw	1
  2164                           
  2165                           	psect	nvBANK0
  2166  0032                     __pnvBANK0:
  2167  0032                     _TMR0_InterruptHandler:
  2168  0032                     	ds	2
  2169  000B                     _INTCONbits	set	11
  2170  000C                     _PORTA	set	12
  2171  000E                     _PORTC	set	14
  2172  0014                     _TRISC	set	20
  2173  0013                     _TRISB	set	19
  2174  0012                     _TRISA	set	18
  2175  001A                     _LATC	set	26
  2176  0019                     _LATB	set	25
  2177  0018                     _LATA	set	24
  2178  059E                     _T0CON0bits	set	1438
  2179  059E                     _T0CON0	set	1438
  2180  059C                     _TMR0L	set	1436
  2181  059D                     _TMR0H	set	1437
  2182  059F                     _T0CON1	set	1439
  2183  070C                     _PIR0bits	set	1804
  2184  0716                     _PIE0bits	set	1814
  2185  079B                     _PMD5	set	1947
  2186  079A                     _PMD4	set	1946
  2187  0799                     _PMD3	set	1945
  2188  0798                     _PMD2	set	1944
  2189  0797                     _PMD1	set	1943
  2190  0796                     _PMD0	set	1942
  2191  0892                     _OSCTUNE	set	2194
  2192  0890                     _OSCSTAT	set	2192
  2193  0893                     _OSCFRQ	set	2195
  2194  0891                     _OSCEN	set	2193
  2195  088F                     _OSCCON3	set	2191
  2196  088D                     _OSCCON1	set	2189
  2197  1F68                     _INLVLE	set	8040
  2198  1F52                     _INLVLC	set	8018
  2199  1F47                     _INLVLB	set	8007
  2200  1F3C                     _INLVLA	set	7996
  2201  1F51                     _SLRCONC	set	8017
  2202  1F46                     _SLRCONB	set	8006
  2203  1F3B                     _SLRCONA	set	7995
  2204  1F50                     _ODCONC	set	8016
  2205  1F45                     _ODCONB	set	8005
  2206  1F3A                     _ODCONA	set	7994
  2207  1F4F                     _WPUC	set	8015
  2208  1F39                     _WPUA	set	7993
  2209  1F44                     _WPUB	set	8004
  2210  1F65                     _WPUE	set	8037
  2211  1F38                     _ANSELA	set	7992
  2212  1F43                     _ANSELB	set	8003
  2213  1F4E                     _ANSELC	set	8014
  2214                           
  2215                           	psect	cinit
  2216  0016                     start_initialization:	
  2217                           ; #config settings
  2218                           
  2219  0016                     __initialization:
  2220                           
  2221                           ; Initialize objects allocated to COMMON
  2222  0016  3181  21DF  3180   	fcall	__pidataCOMMON	;fetch initializer
  2223  0019  00FB               	movwf	__pdataCOMMON& (0+127)
  2224                           
  2225                           ; Clear objects allocated to COMMON
  2226  001A  01FA               	clrf	__pbssCOMMON& (0+127)
  2227                           
  2228                           ; Clear objects allocated to BANK0
  2229  001B  3020               	movlw	low __pbssBANK0
  2230  001C  0084               	movwf	4
  2231  001D  3000               	movlw	high __pbssBANK0
  2232  001E  0085               	movwf	5
  2233  001F  300E               	movlw	14
  2234  0020  3181  21C0  3180   	fcall	clear_ram0
  2235  0023                     end_of_initialization:	
  2236                           ;End of C runtime variable initialization code
  2237                           
  2238  0023                     __end_of__initialization:
  2239  0023  107E               	bcf	int$flags,0	;clear compiler interrupt flag (level 1)
  2240  0024  0140               	movlb	0
  2241  0025  3181  2952         	ljmp	_main	;jump to C main() function
  2242                           
  2243                           	psect	bssCOMMON
  2244  007A                     __pbssCOMMON:
  2245  007A                     _blocked:
  2246  007A                     	ds	1
  2247                           
  2248                           	psect	dataCOMMON
  2249  007B                     __pdataCOMMON:
  2250  007B                     _synchron:
  2251  007B                     	ds	1
  2252                           
  2253                           	psect	bssBANK0
  2254  0020                     __pbssBANK0:
  2255  0020                     get_Zyklus2@kopie:
  2256  0020                     	ds	2
  2257  0022                     get_Zyklus1@kopie:
  2258  0022                     	ds	2
  2259  0024                     get_Zyklus@kopie:
  2260  0024                     	ds	2
  2261  0026                     _zyklen2:
  2262  0026                     	ds	2
  2263  0028                     _zyklen1:
  2264  0028                     	ds	2
  2265  002A                     _zyklen:
  2266  002A                     	ds	2
  2267  002C                     _copyInput:
  2268  002C                     	ds	1
  2269  002D                     _copyOutput:
  2270  002D                     	ds	1
  2271                           
  2272                           	psect	clrtext
  2273  01C0                     clear_ram0:	
  2274                           ;	Called with FSR0 containing the base address, and
  2275                           ;	WREG with the size to clear
  2276                           
  2277  01C0  0064               	clrwdt	;clear the watchdog before getting into this loop
  2278  01C1                     clrloop0:
  2279  01C1  0180               	clrf	0	;clear RAM location pointed to by FSR
  2280  01C2  3101               	addfsr 0,1
  2281  01C3  0B89               	decfsz	9,f	;Have we reached the end of clearing yet?
  2282  01C4  29C1               	goto	clrloop0	;have we reached the end yet?
  2283  01C5  3400               	retlw	0	;all done for this memory range, return
  2284                           
  2285                           	psect	cstackCOMMON
  2286  0070                     __pcstackCOMMON:
  2287  0070                     ?_TMR0_ISR:
  2288  0070                     ?_PMD_Initialize:	
  2289                           ; 1 bytes @ 0x0
  2290                           
  2291  0070                     ?_PIN_MANAGER_Initialize:	
  2292                           ; 1 bytes @ 0x0
  2293                           
  2294  0070                     ?_OSCILLATOR_Initialize:	
  2295                           ; 1 bytes @ 0x0
  2296                           
  2297  0070                     ?_TMR0_Initialize:	
  2298                           ; 1 bytes @ 0x0
  2299                           
  2300  0070                     ?_TMR0_DefaultInterruptHandler:	
  2301                           ; 1 bytes @ 0x0
  2302                           
  2303  0070                     ??_TMR0_DefaultInterruptHandler:	
  2304                           ; 1 bytes @ 0x0
  2305                           
  2306  0070                     ?_ZYKLUS_Initialize:	
  2307                           ; 1 bytes @ 0x0
  2308                           
  2309  0070                     ?_reset_Zyklus:	
  2310                           ; 1 bytes @ 0x0
  2311                           
  2312  0070                     ?_reset_Zyklus1:	
  2313                           ; 1 bytes @ 0x0
  2314                           
  2315  0070                     ?_reset_Zyklus2:	
  2316                           ; 1 bytes @ 0x0
  2317                           
  2318  0070                     ?_readInput:	
  2319                           ; 1 bytes @ 0x0
  2320                           
  2321  0070                     ?_process:	
  2322                           ; 1 bytes @ 0x0
  2323                           
  2324  0070                     ?_writeOutput:	
  2325                           ; 1 bytes @ 0x0
  2326                           
  2327  0070                     ?_My_InterruptHandler:	
  2328                           ; 1 bytes @ 0x0
  2329                           
  2330  0070                     ??_My_InterruptHandler:	
  2331                           ; 1 bytes @ 0x0
  2332                           
  2333  0070                     ?_INTERRUPT_InterruptManager:	
  2334                           ; 1 bytes @ 0x0
  2335                           
  2336  0070                     ?_SYSTEM_Initialize:	
  2337                           ; 1 bytes @ 0x0
  2338                           
  2339  0070                     ?_TMR0_StartTimer:	
  2340                           ; 1 bytes @ 0x0
  2341                           
  2342  0070                     ?_initializing:	
  2343                           ; 1 bytes @ 0x0
  2344                           
  2345  0070                     ?_main:	
  2346                           ; 1 bytes @ 0x0
  2347                           
  2348  0070                     ?_sync:	
  2349                           ; 1 bytes @ 0x0
  2350                           
  2351  0070                     ?_get_Zyklus1:	
  2352                           ; 1 bytes @ 0x0
  2353                           
  2354  0070                     ?_get_Zyklus2:	
  2355                           ; 2 bytes @ 0x0
  2356                           
  2357                           
  2358                           ; 2 bytes @ 0x0
  2359  0070                     	ds	2
  2360  0072                     ??_TMR0_ISR:
  2361  0072                     ??_PMD_Initialize:	
  2362                           ; 1 bytes @ 0x2
  2363                           
  2364  0072                     ??_PIN_MANAGER_Initialize:	
  2365                           ; 1 bytes @ 0x2
  2366                           
  2367  0072                     ??_OSCILLATOR_Initialize:	
  2368                           ; 1 bytes @ 0x2
  2369                           
  2370  0072                     ?_TMR0_SetInterruptHandler:	
  2371                           ; 1 bytes @ 0x2
  2372                           
  2373  0072                     ??_get_Zyklus1:	
  2374                           ; 1 bytes @ 0x2
  2375                           
  2376  0072                     ??_get_Zyklus2:	
  2377                           ; 1 bytes @ 0x2
  2378                           
  2379  0072                     ??_reset_Zyklus:	
  2380                           ; 1 bytes @ 0x2
  2381                           
  2382  0072                     ??_reset_Zyklus1:	
  2383                           ; 1 bytes @ 0x2
  2384                           
  2385  0072                     ??_reset_Zyklus2:	
  2386                           ; 1 bytes @ 0x2
  2387                           
  2388  0072                     ??_readInput:	
  2389                           ; 1 bytes @ 0x2
  2390                           
  2391  0072                     ??_writeOutput:	
  2392                           ; 1 bytes @ 0x2
  2393                           
  2394  0072                     ??_INTERRUPT_InterruptManager:	
  2395                           ; 1 bytes @ 0x2
  2396                           
  2397  0072                     ??_TMR0_StartTimer:	
  2398                           ; 1 bytes @ 0x2
  2399                           
  2400  0072                     ??_sync:	
  2401                           ; 1 bytes @ 0x2
  2402                           
  2403  0072                     ?_get_Zyklus:	
  2404                           ; 1 bytes @ 0x2
  2405                           
  2406  0072                     TMR0_SetInterruptHandler@InterruptHandler:	
  2407                           ; 2 bytes @ 0x2
  2408                           
  2409                           
  2410                           ; 2 bytes @ 0x2
  2411  0072                     	ds	2
  2412  0074                     ??_TMR0_Initialize:
  2413  0074                     ??_TMR0_SetInterruptHandler:	
  2414                           ; 1 bytes @ 0x4
  2415                           
  2416  0074                     ??_ZYKLUS_Initialize:	
  2417                           ; 1 bytes @ 0x4
  2418                           
  2419  0074                     ??_get_Zyklus:	
  2420                           ; 1 bytes @ 0x4
  2421                           
  2422  0074                     ??_SYSTEM_Initialize:	
  2423                           ; 1 bytes @ 0x4
  2424                           
  2425                           
  2426                           ; 1 bytes @ 0x4
  2427  0074                     	ds	1
  2428  0075                     ?_blink:
  2429  0075                     blink@tOn:	
  2430                           ; 1 bytes @ 0x5
  2431                           
  2432                           
  2433                           ; 2 bytes @ 0x5
  2434  0075                     	ds	2
  2435  0077                     blink@tOff:
  2436                           
  2437                           ; 2 bytes @ 0x7
  2438  0077                     	ds	2
  2439  0079                     ??_process:
  2440  0079                     ??_initializing:	
  2441                           ; 1 bytes @ 0x9
  2442                           
  2443                           
  2444                           ; 1 bytes @ 0x9
  2445  0079                     	ds	1
  2446  007A                     ??_main:
  2447                           
  2448                           	psect	cstackBANK0
  2449  002E                     __pcstackBANK0:	
  2450                           ; 1 bytes @ 0xA
  2451                           
  2452  002E                     ??_blink:
  2453                           
  2454                           ; 1 bytes @ 0x0
  2455  002E                     	ds	2
  2456  0030                     blink@status:
  2457                           
  2458                           ; 2 bytes @ 0x2
  2459  0030                     	ds	2
  2460                           
  2461                           	psect	maintext
  2462  0152                     __pmaintext:	
  2463 ;;
  2464 ;;Main: autosize = 0, tempsize = 0, incstack = 0, save=0
  2465 ;;
  2466 ;; *************** function _main *****************
  2467 ;; Defined at:
  2468 ;;		line 84 in file "main.c"
  2469 ;; Parameters:    Size  Location     Type
  2470 ;;		None
  2471 ;; Auto vars:     Size  Location     Type
  2472 ;;		None
  2473 ;; Return value:  Size  Location     Type
  2474 ;;                  1    wreg      void 
  2475 ;; Registers used:
  2476 ;;		wreg, status,2, status,0, pclath, cstack
  2477 ;; Tracked objects:
  2478 ;;		On entry : B3F/0
  2479 ;;		On exit  : 0/0
  2480 ;;		Unchanged: 0/0
  2481 ;; Data sizes:     COMMON   BANK0   BANK1   BANK2   BANK3   BANK4   BANK5   BANK6   BANK7   BANK8   BANK9  BANK10  BANK1
      +1  BANK12
  2482 ;;      Params:         0       0       0       0       0       0       0       0       0       0       0       0       
      +0       0
  2483 ;;      Locals:         0       0       0       0       0       0       0       0       0       0       0       0       
      +0       0
  2484 ;;      Temps:          0       0       0       0       0       0       0       0       0       0       0       0       
      +0       0
  2485 ;;      Totals:         0       0       0       0       0       0       0       0       0       0       0       0       
      +0       0
  2486 ;;Total ram usage:        0 bytes
  2487 ;; Hardware stack levels required when called:    7
  2488 ;; This function calls:
  2489 ;;		_initializing
  2490 ;;		_process
  2491 ;;		_readInput
  2492 ;;		_writeOutput
  2493 ;; This function is called by:
  2494 ;;		Startup code after reset
  2495 ;; This function uses a non-reentrant model
  2496 ;;
  2497                           
  2498                           
  2499                           ;psect for function _main
  2500  0152                     _main:
  2501  0152                     l1195:	
  2502                           ;incstack = 0
  2503                           ; Regs used in _main: [wreg+status,2+status,0+pclath+cstack]
  2504                           
  2505                           
  2506                           ;main.c: 86:  initializing();
  2507  0152  3180  20BF  3181   	fcall	_initializing
  2508  0155                     l194:	
  2509                           ;main.c: 87:  while(1)
  2510                           
  2511                           
  2512                           ;main.c: 88:  {;main.c: 89:   readInput();
  2513  0155  3181  21C6  3181   	fcall	_readInput
  2514                           
  2515                           ;main.c: 90:   process();
  2516  0158  3180  20E1  3181   	fcall	_process
  2517                           
  2518                           ;main.c: 91:   writeOutput();
  2519  015B  3181  21D8  3181   	fcall	_writeOutput
  2520  015E  2955               	goto	l194
  2521  015F  3180  2814         	ljmp	start
  2522  0161                     __end_of_main:
  2523                           
  2524                           	psect	text1
  2525  01D8                     __ptext1:	
  2526 ;; *************** function _writeOutput *****************
  2527 ;; Defined at:
  2528 ;;		line 129 in file "main.c"
  2529 ;; Parameters:    Size  Location     Type
  2530 ;;		None
  2531 ;; Auto vars:     Size  Location     Type
  2532 ;;		None
  2533 ;; Return value:  Size  Location     Type
  2534 ;;                  1    wreg      void 
  2535 ;; Registers used:
  2536 ;;		wreg
  2537 ;; Tracked objects:
  2538 ;;		On entry : 0/0
  2539 ;;		On exit  : 0/0
  2540 ;;		Unchanged: 0/0
  2541 ;; Data sizes:     COMMON   BANK0   BANK1   BANK2   BANK3   BANK4   BANK5   BANK6   BANK7   BANK8   BANK9  BANK10  BANK1
      +1  BANK12
  2542 ;;      Params:         0       0       0       0       0       0       0       0       0       0       0       0       
      +0       0
  2543 ;;      Locals:         0       0       0       0       0       0       0       0       0       0       0       0       
      +0       0
  2544 ;;      Temps:          0       0       0       0       0       0       0       0       0       0       0       0       
      +0       0
  2545 ;;      Totals:         0       0       0       0       0       0       0       0       0       0       0       0       
      +0       0
  2546 ;;Total ram usage:        0 bytes
  2547 ;; Hardware stack levels used:    1
  2548 ;; Hardware stack levels required when called:    3
  2549 ;; This function calls:
  2550 ;;		Nothing
  2551 ;; This function is called by:
  2552 ;;		_main
  2553 ;; This function uses a non-reentrant model
  2554 ;;
  2555                           
  2556                           
  2557                           ;psect for function _writeOutput
  2558  01D8                     _writeOutput:
  2559  01D8                     l1157:	
  2560                           ;incstack = 0
  2561                           ; Regs used in _writeOutput: [wreg]
  2562                           
  2563                           
  2564                           ;main.c: 133:  PORTA = copyOutput;
  2565  01D8  0140               	movlb	0	; select bank0
  2566  01D9  082D               	movf	_copyOutput,w
  2567  01DA  008C               	movwf	12	;volatile
  2568  01DB                     l208:
  2569  01DB  0008               	return
  2570  01DC                     __end_of_writeOutput:
  2571                           
  2572                           	psect	text2
  2573  01C6                     __ptext2:	
  2574 ;; *************** function _readInput *****************
  2575 ;; Defined at:
  2576 ;;		line 100 in file "main.c"
  2577 ;; Parameters:    Size  Location     Type
  2578 ;;		None
  2579 ;; Auto vars:     Size  Location     Type
  2580 ;;		None
  2581 ;; Return value:  Size  Location     Type
  2582 ;;                  1    wreg      void 
  2583 ;; Registers used:
  2584 ;;		wreg
  2585 ;; Tracked objects:
  2586 ;;		On entry : 0/0
  2587 ;;		On exit  : 0/0
  2588 ;;		Unchanged: 0/0
  2589 ;; Data sizes:     COMMON   BANK0   BANK1   BANK2   BANK3   BANK4   BANK5   BANK6   BANK7   BANK8   BANK9  BANK10  BANK1
      +1  BANK12
  2590 ;;      Params:         0       0       0       0       0       0       0       0       0       0       0       0       
      +0       0
  2591 ;;      Locals:         0       0       0       0       0       0       0       0       0       0       0       0       
      +0       0
  2592 ;;      Temps:          1       0       0       0       0       0       0       0       0       0       0       0       
      +0       0
  2593 ;;      Totals:         1       0       0       0       0       0       0       0       0       0       0       0       
      +0       0
  2594 ;;Total ram usage:        1 bytes
  2595 ;; Hardware stack levels used:    1
  2596 ;; Hardware stack levels required when called:    3
  2597 ;; This function calls:
  2598 ;;		Nothing
  2599 ;; This function is called by:
  2600 ;;		_main
  2601 ;; This function uses a non-reentrant model
  2602 ;;
  2603                           
  2604                           
  2605                           ;psect for function _readInput
  2606  01C6                     _readInput:
  2607  01C6                     l1147:	
  2608                           ;incstack = 0
  2609                           ; Regs used in _readInput: [wreg]
  2610                           
  2611                           
  2612                           ;main.c: 102:  copyInput = PORTC;
  2613  01C6  0140               	movlb	0	; select bank0
  2614  01C7  080E               	movf	14,w	;volatile
  2615  01C8  00F2               	movwf	??_readInput
  2616  01C9  0872               	movf	??_readInput,w
  2617  01CA  00AC               	movwf	_copyInput
  2618  01CB                     l200:
  2619  01CB  0008               	return
  2620  01CC                     __end_of_readInput:
  2621                           
  2622                           	psect	text3
  2623  00E1                     __ptext3:	
  2624 ;; *************** function _process *****************
  2625 ;; Defined at:
  2626 ;;		line 110 in file "main.c"
  2627 ;; Parameters:    Size  Location     Type
  2628 ;;		None
  2629 ;; Auto vars:     Size  Location     Type
  2630 ;;		None
  2631 ;; Return value:  Size  Location     Type
  2632 ;;                  1    wreg      void 
  2633 ;; Registers used:
  2634 ;;		wreg, status,2, status,0, pclath, cstack
  2635 ;; Tracked objects:
  2636 ;;		On entry : 0/0
  2637 ;;		On exit  : 0/0
  2638 ;;		Unchanged: 0/0
  2639 ;; Data sizes:     COMMON   BANK0   BANK1   BANK2   BANK3   BANK4   BANK5   BANK6   BANK7   BANK8   BANK9  BANK10  BANK1
      +1  BANK12
  2640 ;;      Params:         0       0       0       0       0       0       0       0       0       0       0       0       
      +0       0
  2641 ;;      Locals:         0       0       0       0       0       0       0       0       0       0       0       0       
      +0       0
  2642 ;;      Temps:          1       0       0       0       0       0       0       0       0       0       0       0       
      +0       0
  2643 ;;      Totals:         1       0       0       0       0       0       0       0       0       0       0       0       
      +0       0
  2644 ;;Total ram usage:        1 bytes
  2645 ;; Hardware stack levels used:    1
  2646 ;; Hardware stack levels required when called:    6
  2647 ;; This function calls:
  2648 ;;		_blink
  2649 ;; This function is called by:
  2650 ;;		_main
  2651 ;; This function uses a non-reentrant model
  2652 ;;
  2653                           
  2654                           
  2655                           ;psect for function _process
  2656  00E1                     _process:
  2657  00E1                     l1187:	
  2658                           ;incstack = 0
  2659                           ; Regs used in _process: [wreg+status,2+status,0+pclath+cstack]
  2660                           
  2661                           
  2662                           ;main.c: 112:     if(copyInput == 0x01)
  2663  00E1  0140               	movlb	0	; select bank0
  2664  00E2  032C               	decf	_copyInput,w
  2665  00E3  1D03               	btfss	3,2
  2666  00E4  28E6               	goto	u301
  2667  00E5  28E7               	goto	u300
  2668  00E6                     u301:
  2669  00E6  28F6               	goto	l1191
  2670  00E7                     u300:
  2671  00E7                     l1189:
  2672                           
  2673                           ;main.c: 113:     {;main.c: 114:         copyOutput = blink(123, 456);
  2674  00E7  307B               	movlw	123
  2675  00E8  00F5               	movwf	blink@tOn
  2676  00E9  3000               	movlw	0
  2677  00EA  00F6               	movwf	blink@tOn+1
  2678  00EB  30C8               	movlw	200
  2679  00EC  00F7               	movwf	blink@tOff
  2680  00ED  3001               	movlw	1
  2681  00EE  00F8               	movwf	blink@tOff+1
  2682  00EF  3180  2027  3180   	fcall	_blink
  2683  00F2  00F9               	movwf	??_process
  2684  00F3  0879               	movf	??_process,w
  2685  00F4  0140               	movlb	0	; select bank0
  2686  00F5  00AD               	movwf	_copyOutput
  2687  00F6                     l1191:
  2688                           
  2689                           ;main.c: 117:     if(copyInput != 0x01)
  2690  00F6  032C               	decf	_copyInput,w
  2691  00F7  1903               	btfsc	3,2
  2692  00F8  28FA               	goto	u311
  2693  00F9  28FB               	goto	u310
  2694  00FA                     u311:
  2695  00FA  28FF               	goto	l205
  2696  00FB                     u310:
  2697  00FB                     l1193:
  2698                           
  2699                           ;main.c: 118:     {;main.c: 119:         copyOutput = copyInput;
  2700  00FB  082C               	movf	_copyInput,w
  2701  00FC  00F9               	movwf	??_process
  2702  00FD  0879               	movf	??_process,w
  2703  00FE  00AD               	movwf	_copyOutput
  2704  00FF                     l205:
  2705  00FF  0008               	return
  2706  0100                     __end_of_process:
  2707                           
  2708                           	psect	text4
  2709  00BF                     __ptext4:	
  2710 ;; *************** function _initializing *****************
  2711 ;; Defined at:
  2712 ;;		line 59 in file "main.c"
  2713 ;; Parameters:    Size  Location     Type
  2714 ;;		None
  2715 ;; Auto vars:     Size  Location     Type
  2716 ;;		None
  2717 ;; Return value:  Size  Location     Type
  2718 ;;                  1    wreg      void 
  2719 ;; Registers used:
  2720 ;;		wreg, status,2, status,0, pclath, cstack
  2721 ;; Tracked objects:
  2722 ;;		On entry : 0/0
  2723 ;;		On exit  : 0/0
  2724 ;;		Unchanged: 0/0
  2725 ;; Data sizes:     COMMON   BANK0   BANK1   BANK2   BANK3   BANK4   BANK5   BANK6   BANK7   BANK8   BANK9  BANK10  BANK1
      +1  BANK12
  2726 ;;      Params:         0       0       0       0       0       0       0       0       0       0       0       0       
      +0       0
  2727 ;;      Locals:         0       0       0       0       0       0       0       0       0       0       0       0       
      +0       0
  2728 ;;      Temps:          0       0       0       0       0       0       0       0       0       0       0       0       
      +0       0
  2729 ;;      Totals:         0       0       0       0       0       0       0       0       0       0       0       0       
      +0       0
  2730 ;;Total ram usage:        0 bytes
  2731 ;; Hardware stack levels used:    1
  2732 ;; Hardware stack levels required when called:    6
  2733 ;; This function calls:
  2734 ;;		_SYSTEM_Initialize
  2735 ;;		_ZYKLUS_Initialize
  2736 ;;		_blink
  2737 ;;		_get_Zyklus
  2738 ;;		_get_Zyklus1
  2739 ;;		_get_Zyklus2
  2740 ;;		_reset_Zyklus
  2741 ;;		_reset_Zyklus1
  2742 ;;		_reset_Zyklus2
  2743 ;; This function is called by:
  2744 ;;		_main
  2745 ;; This function uses a non-reentrant model
  2746 ;;
  2747                           
  2748                           
  2749                           ;psect for function _initializing
  2750  00BF                     _initializing:
  2751  00BF                     l1185:	
  2752                           ;incstack = 0
  2753                           ; Regs used in _initializing: [wreg+status,2+status,0+pclath+cstack]
  2754                           
  2755                           
  2756                           ;main.c: 61:  SYSTEM_Initialize();
  2757  00BF  3181  217D  3180   	fcall	_SYSTEM_Initialize
  2758                           
  2759                           ;main.c: 62:  ZYKLUS_Initialize();
  2760  00C2  3181  2170  3180   	fcall	_ZYKLUS_Initialize
  2761                           
  2762                           ;main.c: 66:  get_Zyklus();
  2763  00C5  3181  2100  3180   	fcall	_get_Zyklus
  2764                           
  2765                           ;main.c: 67:  get_Zyklus1();
  2766  00C8  3181  213F  3180   	fcall	_get_Zyklus1
  2767                           
  2768                           ;main.c: 68:  get_Zyklus2();
  2769  00CB  3181  212C  3180   	fcall	_get_Zyklus2
  2770                           
  2771                           ;main.c: 69:  reset_Zyklus();
  2772  00CE  3181  21A2  3180   	fcall	_reset_Zyklus
  2773                           
  2774                           ;main.c: 70:  reset_Zyklus1();
  2775  00D1  3181  2196  3180   	fcall	_reset_Zyklus1
  2776                           
  2777                           ;main.c: 71:  reset_Zyklus2();
  2778  00D4  3181  218A  3180   	fcall	_reset_Zyklus2
  2779                           
  2780                           ;main.c: 72:  blink(0, 0);
  2781  00D7  3000               	movlw	0
  2782  00D8  00F5               	movwf	blink@tOn
  2783  00D9  00F6               	movwf	blink@tOn+1
  2784  00DA  3000               	movlw	0
  2785  00DB  00F7               	movwf	blink@tOff
  2786  00DC  00F8               	movwf	blink@tOff+1
  2787  00DD  3180  2027  3180   	fcall	_blink
  2788  00E0                     l189:
  2789  00E0  0008               	return
  2790  00E1                     __end_of_initializing:
  2791                           
  2792                           	psect	text5
  2793  018A                     __ptext5:	
  2794 ;; *************** function _reset_Zyklus2 *****************
  2795 ;; Defined at:
  2796 ;;		line 133 in file "zyklus.c"
  2797 ;; Parameters:    Size  Location     Type
  2798 ;;		None
  2799 ;; Auto vars:     Size  Location     Type
  2800 ;;		None
  2801 ;; Return value:  Size  Location     Type
  2802 ;;                  1    wreg      void 
  2803 ;; Registers used:
  2804 ;;		wreg, status,2, status,0, pclath, cstack
  2805 ;; Tracked objects:
  2806 ;;		On entry : 0/0
  2807 ;;		On exit  : 0/0
  2808 ;;		Unchanged: 0/0
  2809 ;; Data sizes:     COMMON   BANK0   BANK1   BANK2   BANK3   BANK4   BANK5   BANK6   BANK7   BANK8   BANK9  BANK10  BANK1
      +1  BANK12
  2810 ;;      Params:         0       0       0       0       0       0       0       0       0       0       0       0       
      +0       0
  2811 ;;      Locals:         0       0       0       0       0       0       0       0       0       0       0       0       
      +0       0
  2812 ;;      Temps:          1       0       0       0       0       0       0       0       0       0       0       0       
      +0       0
  2813 ;;      Totals:         1       0       0       0       0       0       0       0       0       0       0       0       
      +0       0
  2814 ;;Total ram usage:        1 bytes
  2815 ;; Hardware stack levels used:    1
  2816 ;; Hardware stack levels required when called:    4
  2817 ;; This function calls:
  2818 ;;		_sync
  2819 ;; This function is called by:
  2820 ;;		_initializing
  2821 ;; This function uses a non-reentrant model
  2822 ;;
  2823                           
  2824                           
  2825                           ;psect for function _reset_Zyklus2
  2826  018A                     _reset_Zyklus2:
  2827  018A                     l1093:	
  2828                           ;incstack = 0
  2829                           ; Regs used in _reset_Zyklus2: [wreg+status,2+status,0+pclath+cstack]
  2830                           
  2831                           
  2832                           ;zyklus.c: 136:   sync();
  2833  018A  3181  21CC  3181   	fcall	_sync
  2834  018D                     l1095:
  2835                           
  2836                           ;zyklus.c: 137:  synchron=0;
  2837  018D  01FB               	clrf	_synchron	;volatile
  2838  018E                     l1097:
  2839                           
  2840                           ;zyklus.c: 138:  zyklen2=0;
  2841  018E  0140               	movlb	0	; select bank0
  2842  018F  01A6               	clrf	_zyklen2	;volatile
  2843  0190  01A7               	clrf	_zyklen2+1	;volatile
  2844  0191                     l1099:
  2845                           
  2846                           ;zyklus.c: 139:  synchron=1;
  2847  0191  3001               	movlw	1
  2848  0192  00F2               	movwf	??_reset_Zyklus2
  2849  0193  0872               	movf	??_reset_Zyklus2,w
  2850  0194  00FB               	movwf	_synchron	;volatile
  2851  0195                     l273:
  2852  0195  0008               	return
  2853  0196                     __end_of_reset_Zyklus2:
  2854                           
  2855                           	psect	text6
  2856  0196                     __ptext6:	
  2857 ;; *************** function _reset_Zyklus1 *****************
  2858 ;; Defined at:
  2859 ;;		line 103 in file "zyklus.c"
  2860 ;; Parameters:    Size  Location     Type
  2861 ;;		None
  2862 ;; Auto vars:     Size  Location     Type
  2863 ;;		None
  2864 ;; Return value:  Size  Location     Type
  2865 ;;                  1    wreg      void 
  2866 ;; Registers used:
  2867 ;;		wreg, status,2, status,0, pclath, cstack
  2868 ;; Tracked objects:
  2869 ;;		On entry : 0/0
  2870 ;;		On exit  : 0/0
  2871 ;;		Unchanged: 0/0
  2872 ;; Data sizes:     COMMON   BANK0   BANK1   BANK2   BANK3   BANK4   BANK5   BANK6   BANK7   BANK8   BANK9  BANK10  BANK1
      +1  BANK12
  2873 ;;      Params:         0       0       0       0       0       0       0       0       0       0       0       0       
      +0       0
  2874 ;;      Locals:         0       0       0       0       0       0       0       0       0       0       0       0       
      +0       0
  2875 ;;      Temps:          1       0       0       0       0       0       0       0       0       0       0       0       
      +0       0
  2876 ;;      Totals:         1       0       0       0       0       0       0       0       0       0       0       0       
      +0       0
  2877 ;;Total ram usage:        1 bytes
  2878 ;; Hardware stack levels used:    1
  2879 ;; Hardware stack levels required when called:    4
  2880 ;; This function calls:
  2881 ;;		_sync
  2882 ;; This function is called by:
  2883 ;;		_initializing
  2884 ;; This function uses a non-reentrant model
  2885 ;;
  2886                           
  2887                           
  2888                           ;psect for function _reset_Zyklus1
  2889  0196                     _reset_Zyklus1:
  2890  0196                     l1085:	
  2891                           ;incstack = 0
  2892                           ; Regs used in _reset_Zyklus1: [wreg+status,2+status,0+pclath+cstack]
  2893                           
  2894                           
  2895                           ;zyklus.c: 106:   sync();
  2896  0196  3181  21CC  3181   	fcall	_sync
  2897  0199                     l1087:
  2898                           
  2899                           ;zyklus.c: 107:  synchron=0;
  2900  0199  01FB               	clrf	_synchron	;volatile
  2901  019A                     l1089:
  2902                           
  2903                           ;zyklus.c: 108:  zyklen1=0;
  2904  019A  0140               	movlb	0	; select bank0
  2905  019B  01A8               	clrf	_zyklen1	;volatile
  2906  019C  01A9               	clrf	_zyklen1+1	;volatile
  2907  019D                     l1091:
  2908                           
  2909                           ;zyklus.c: 109:  synchron=1;
  2910  019D  3001               	movlw	1
  2911  019E  00F2               	movwf	??_reset_Zyklus1
  2912  019F  0872               	movf	??_reset_Zyklus1,w
  2913  01A0  00FB               	movwf	_synchron	;volatile
  2914  01A1                     l264:
  2915  01A1  0008               	return
  2916  01A2                     __end_of_reset_Zyklus1:
  2917                           
  2918                           	psect	text7
  2919  012C                     __ptext7:	
  2920 ;; *************** function _get_Zyklus2 *****************
  2921 ;; Defined at:
  2922 ;;		line 116 in file "zyklus.c"
  2923 ;; Parameters:    Size  Location     Type
  2924 ;;		None
  2925 ;; Auto vars:     Size  Location     Type
  2926 ;;		None
  2927 ;; Return value:  Size  Location     Type
  2928 ;;                  2  164[None  ] unsigned int 
  2929 ;; Registers used:
  2930 ;;		wreg, status,2, status,0, pclath, cstack
  2931 ;; Tracked objects:
  2932 ;;		On entry : 0/0
  2933 ;;		On exit  : 0/0
  2934 ;;		Unchanged: 0/0
  2935 ;; Data sizes:     COMMON   BANK0   BANK1   BANK2   BANK3   BANK4   BANK5   BANK6   BANK7   BANK8   BANK9  BANK10  BANK1
      +1  BANK12
  2936 ;;      Params:         0       0       0       0       0       0       0       0       0       0       0       0       
      +0       0
  2937 ;;      Locals:         0       0       0       0       0       0       0       0       0       0       0       0       
      +0       0
  2938 ;;      Temps:          1       0       0       0       0       0       0       0       0       0       0       0       
      +0       0
  2939 ;;      Totals:         1       0       0       0       0       0       0       0       0       0       0       0       
      +0       0
  2940 ;;Total ram usage:        1 bytes
  2941 ;; Hardware stack levels used:    1
  2942 ;; Hardware stack levels required when called:    4
  2943 ;; This function calls:
  2944 ;;		_sync
  2945 ;; This function is called by:
  2946 ;;		_initializing
  2947 ;; This function uses a non-reentrant model
  2948 ;;
  2949                           
  2950                           
  2951                           ;psect for function _get_Zyklus2
  2952  012C                     _get_Zyklus2:
  2953  012C                     l1073:	
  2954                           ;incstack = 0
  2955                           ; Regs used in _get_Zyklus2: [wreg+status,2+status,0+pclath+cstack]
  2956                           
  2957                           
  2958                           ;zyklus.c: 118:   static unsigned int kopie=0;;zyklus.c: 119:  sync();
  2959  012C  3181  21CC  3181   	fcall	_sync
  2960  012F                     l1075:
  2961                           
  2962                           ;zyklus.c: 121:  if (synchron)
  2963  012F  087B               	movf	_synchron,w	;volatile
  2964  0130  1903               	btfsc	3,2
  2965  0131  2933               	goto	u171
  2966  0132  2934               	goto	u170
  2967  0133                     u171:
  2968  0133  293E               	goto	l270
  2969  0134                     u170:
  2970  0134                     l1077:
  2971                           
  2972                           ;zyklus.c: 122:  {;zyklus.c: 123:   synchron=0;
  2973  0134  01FB               	clrf	_synchron	;volatile
  2974  0135                     l1079:
  2975                           
  2976                           ;zyklus.c: 124:   kopie=zyklen2;
  2977  0135  0140               	movlb	0	; select bank0
  2978  0136  0827               	movf	_zyklen2+1,w	;volatile
  2979  0137  00A1               	movwf	get_Zyklus2@kopie+1
  2980  0138  0826               	movf	_zyklen2,w	;volatile
  2981  0139  00A0               	movwf	get_Zyklus2@kopie
  2982  013A                     l1081:
  2983                           
  2984                           ;zyklus.c: 125:   synchron=1;
  2985  013A  3001               	movlw	1
  2986  013B  00F2               	movwf	??_get_Zyklus2
  2987  013C  0872               	movf	??_get_Zyklus2,w
  2988  013D  00FB               	movwf	_synchron	;volatile
  2989  013E                     l270:
  2990  013E  0008               	return
  2991  013F                     __end_of_get_Zyklus2:
  2992                           
  2993                           	psect	text8
  2994  013F                     __ptext8:	
  2995 ;; *************** function _get_Zyklus1 *****************
  2996 ;; Defined at:
  2997 ;;		line 86 in file "zyklus.c"
  2998 ;; Parameters:    Size  Location     Type
  2999 ;;		None
  3000 ;; Auto vars:     Size  Location     Type
  3001 ;;		None
  3002 ;; Return value:  Size  Location     Type
  3003 ;;                  2  162[None  ] unsigned int 
  3004 ;; Registers used:
  3005 ;;		wreg, status,2, status,0, pclath, cstack
  3006 ;; Tracked objects:
  3007 ;;		On entry : 0/0
  3008 ;;		On exit  : 0/0
  3009 ;;		Unchanged: 0/0
  3010 ;; Data sizes:     COMMON   BANK0   BANK1   BANK2   BANK3   BANK4   BANK5   BANK6   BANK7   BANK8   BANK9  BANK10  BANK1
      +1  BANK12
  3011 ;;      Params:         0       0       0       0       0       0       0       0       0       0       0       0       
      +0       0
  3012 ;;      Locals:         0       0       0       0       0       0       0       0       0       0       0       0       
      +0       0
  3013 ;;      Temps:          1       0       0       0       0       0       0       0       0       0       0       0       
      +0       0
  3014 ;;      Totals:         1       0       0       0       0       0       0       0       0       0       0       0       
      +0       0
  3015 ;;Total ram usage:        1 bytes
  3016 ;; Hardware stack levels used:    1
  3017 ;; Hardware stack levels required when called:    4
  3018 ;; This function calls:
  3019 ;;		_sync
  3020 ;; This function is called by:
  3021 ;;		_initializing
  3022 ;; This function uses a non-reentrant model
  3023 ;;
  3024                           
  3025                           
  3026                           ;psect for function _get_Zyklus1
  3027  013F                     _get_Zyklus1:
  3028  013F                     l1061:	
  3029                           ;incstack = 0
  3030                           ; Regs used in _get_Zyklus1: [wreg+status,2+status,0+pclath+cstack]
  3031                           
  3032                           
  3033                           ;zyklus.c: 88:   static unsigned int kopie=0;;zyklus.c: 89:  sync();
  3034  013F  3181  21CC  3181   	fcall	_sync
  3035  0142                     l1063:
  3036                           
  3037                           ;zyklus.c: 91:  if (synchron)
  3038  0142  087B               	movf	_synchron,w	;volatile
  3039  0143  1903               	btfsc	3,2
  3040  0144  2946               	goto	u161
  3041  0145  2947               	goto	u160
  3042  0146                     u161:
  3043  0146  2951               	goto	l261
  3044  0147                     u160:
  3045  0147                     l1065:
  3046                           
  3047                           ;zyklus.c: 92:  {;zyklus.c: 93:   synchron=0;
  3048  0147  01FB               	clrf	_synchron	;volatile
  3049  0148                     l1067:
  3050                           
  3051                           ;zyklus.c: 94:   kopie=zyklen1;
  3052  0148  0140               	movlb	0	; select bank0
  3053  0149  0829               	movf	_zyklen1+1,w	;volatile
  3054  014A  00A3               	movwf	get_Zyklus1@kopie+1
  3055  014B  0828               	movf	_zyklen1,w	;volatile
  3056  014C  00A2               	movwf	get_Zyklus1@kopie
  3057  014D                     l1069:
  3058                           
  3059                           ;zyklus.c: 95:   synchron=1;
  3060  014D  3001               	movlw	1
  3061  014E  00F2               	movwf	??_get_Zyklus1
  3062  014F  0872               	movf	??_get_Zyklus1,w
  3063  0150  00FB               	movwf	_synchron	;volatile
  3064  0151                     l261:
  3065  0151  0008               	return
  3066  0152                     __end_of_get_Zyklus1:
  3067                           
  3068                           	psect	text9
  3069  0027                     __ptext9:	
  3070 ;; *************** function _blink *****************
  3071 ;; Defined at:
  3072 ;;		line 142 in file "main.c"
  3073 ;; Parameters:    Size  Location     Type
  3074 ;;  tOn             2    5[COMMON] unsigned int 
  3075 ;;  tOff            2    7[COMMON] unsigned int 
  3076 ;; Auto vars:     Size  Location     Type
  3077 ;;  status          2    2[BANK0 ] unsigned int 
  3078 ;; Return value:  Size  Location     Type
  3079 ;;                  1    wreg      unsigned char 
  3080 ;; Registers used:
  3081 ;;		wreg, status,2, status,0, pclath, cstack
  3082 ;; Tracked objects:
  3083 ;;		On entry : 0/0
  3084 ;;		On exit  : 0/0
  3085 ;;		Unchanged: 0/0
  3086 ;; Data sizes:     COMMON   BANK0   BANK1   BANK2   BANK3   BANK4   BANK5   BANK6   BANK7   BANK8   BANK9  BANK10  BANK1
      +1  BANK12
  3087 ;;      Params:         4       0       0       0       0       0       0       0       0       0       0       0       
      +0       0
  3088 ;;      Locals:         0       2       0       0       0       0       0       0       0       0       0       0       
      +0       0
  3089 ;;      Temps:          0       2       0       0       0       0       0       0       0       0       0       0       
      +0       0
  3090 ;;      Totals:         4       4       0       0       0       0       0       0       0       0       0       0       
      +0       0
  3091 ;;Total ram usage:        8 bytes
  3092 ;; Hardware stack levels used:    1
  3093 ;; Hardware stack levels required when called:    5
  3094 ;; This function calls:
  3095 ;;		_get_Zyklus
  3096 ;;		_reset_Zyklus
  3097 ;; This function is called by:
  3098 ;;		_initializing
  3099 ;;		_process
  3100 ;; This function uses a non-reentrant model
  3101 ;;
  3102                           
  3103                           
  3104                           ;psect for function _blink
  3105  0027                     _blink:
  3106  0027                     l1167:	
  3107                           ;incstack = 0
  3108                           ; Regs used in _blink: [wreg+status,2+status,0+pclath+cstack]
  3109                           
  3110                           
  3111                           ;main.c: 142: unsigned char blink(unsigned int tOn, unsigned int tOff);main.c: 143: {;ma
      +                          in.c: 144:   unsigned int status = 0;
  3112  0027  0140               	movlb	0	; select bank0
  3113  0028  01B0               	clrf	blink@status
  3114  0029  01B1               	clrf	blink@status+1
  3115  002A                     l1169:
  3116                           
  3117                           ;main.c: 146:   if(get_Zyklus() <= tOn)
  3118  002A  3181  2100  3180   	fcall	_get_Zyklus
  3119  002D  0873               	movf	?_get_Zyklus+1,w
  3120  002E  0276               	subwf	blink@tOn+1,w
  3121  002F  1D03               	skipz
  3122  0030  2833               	goto	u275
  3123  0031  0872               	movf	?_get_Zyklus,w
  3124  0032  0275               	subwf	blink@tOn,w
  3125  0033                     u275:
  3126  0033  1C03               	skipc
  3127  0034  2836               	goto	u271
  3128  0035  2837               	goto	u270
  3129  0036                     u271:
  3130  0036  283C               	goto	l1173
  3131  0037                     u270:
  3132  0037                     l1171:
  3133                           
  3134                           ;main.c: 147:   {;main.c: 148:    status = 1;
  3135  0037  3001               	movlw	1
  3136  0038  0140               	movlb	0	; select bank0
  3137  0039  00B0               	movwf	blink@status
  3138  003A  3000               	movlw	0
  3139  003B  00B1               	movwf	blink@status+1
  3140  003C                     l1173:
  3141                           
  3142                           ;main.c: 151:   if(get_Zyklus() >= tOn)
  3143  003C  3181  2100  3180   	fcall	_get_Zyklus
  3144  003F  0876               	movf	blink@tOn+1,w
  3145  0040  0273               	subwf	?_get_Zyklus+1,w
  3146  0041  1D03               	skipz
  3147  0042  2845               	goto	u285
  3148  0043  0875               	movf	blink@tOn,w
  3149  0044  0272               	subwf	?_get_Zyklus,w
  3150  0045                     u285:
  3151  0045  1C03               	skipc
  3152  0046  2848               	goto	u281
  3153  0047  2849               	goto	u280
  3154  0048                     u281:
  3155  0048  284C               	goto	l1177
  3156  0049                     u280:
  3157  0049                     l1175:
  3158                           
  3159                           ;main.c: 152:   {;main.c: 153:    status = 0;
  3160  0049  0140               	movlb	0	; select bank0
  3161  004A  01B0               	clrf	blink@status
  3162  004B  01B1               	clrf	blink@status+1
  3163  004C                     l1177:
  3164                           
  3165                           ;main.c: 156:   if(get_Zyklus() >= tOn + tOff)
  3166  004C  0877               	movf	blink@tOff,w
  3167  004D  0775               	addwf	blink@tOn,w
  3168  004E  0140               	movlb	0	; select bank0
  3169  004F  00AE               	movwf	??_blink
  3170  0050  0878               	movf	blink@tOff+1,w
  3171  0051  3D76               	addwfc	blink@tOn+1,w
  3172  0052  00AF               	movwf	??_blink+1
  3173  0053  3181  2100  3180   	fcall	_get_Zyklus
  3174  0056  0140               	movlb	0	; select bank0
  3175  0057  082F               	movf	??_blink+1,w
  3176  0058  0273               	subwf	?_get_Zyklus+1,w
  3177  0059  1D03               	skipz
  3178  005A  285D               	goto	u295
  3179  005B  082E               	movf	??_blink,w
  3180  005C  0272               	subwf	?_get_Zyklus,w
  3181  005D                     u295:
  3182  005D  1C03               	skipc
  3183  005E  2860               	goto	u291
  3184  005F  2861               	goto	u290
  3185  0060                     u291:
  3186  0060  2864               	goto	l1181
  3187  0061                     u290:
  3188  0061                     l1179:
  3189                           
  3190                           ;main.c: 157:   {;main.c: 158:    reset_Zyklus();
  3191  0061  3181  21A2  3180   	fcall	_reset_Zyklus
  3192  0064                     l1181:
  3193                           
  3194                           ;main.c: 160:  return status;
  3195  0064  0140               	movlb	0	; select bank0
  3196  0065  0830               	movf	blink@status,w
  3197  0066                     l214:
  3198  0066  0008               	return
  3199  0067                     __end_of_blink:
  3200                           
  3201                           	psect	text10
  3202  01A2                     __ptext10:	
  3203 ;; *************** function _reset_Zyklus *****************
  3204 ;; Defined at:
  3205 ;;		line 73 in file "zyklus.c"
  3206 ;; Parameters:    Size  Location     Type
  3207 ;;		None
  3208 ;; Auto vars:     Size  Location     Type
  3209 ;;		None
  3210 ;; Return value:  Size  Location     Type
  3211 ;;                  1    wreg      void 
  3212 ;; Registers used:
  3213 ;;		wreg, status,2, status,0, pclath, cstack
  3214 ;; Tracked objects:
  3215 ;;		On entry : 0/0
  3216 ;;		On exit  : 0/0
  3217 ;;		Unchanged: 0/0
  3218 ;; Data sizes:     COMMON   BANK0   BANK1   BANK2   BANK3   BANK4   BANK5   BANK6   BANK7   BANK8   BANK9  BANK10  BANK1
      +1  BANK12
  3219 ;;      Params:         0       0       0       0       0       0       0       0       0       0       0       0       
      +0       0
  3220 ;;      Locals:         0       0       0       0       0       0       0       0       0       0       0       0       
      +0       0
  3221 ;;      Temps:          1       0       0       0       0       0       0       0       0       0       0       0       
      +0       0
  3222 ;;      Totals:         1       0       0       0       0       0       0       0       0       0       0       0       
      +0       0
  3223 ;;Total ram usage:        1 bytes
  3224 ;; Hardware stack levels used:    1
  3225 ;; Hardware stack levels required when called:    4
  3226 ;; This function calls:
  3227 ;;		_sync
  3228 ;; This function is called by:
  3229 ;;		_initializing
  3230 ;;		_blink
  3231 ;; This function uses a non-reentrant model
  3232 ;;
  3233                           
  3234                           
  3235                           ;psect for function _reset_Zyklus
  3236  01A2                     _reset_Zyklus:
  3237  01A2                     l1039:	
  3238                           ;incstack = 0
  3239                           ; Regs used in _reset_Zyklus: [wreg+status,2+status,0+pclath+cstack]
  3240                           
  3241                           
  3242                           ;zyklus.c: 76:   sync();
  3243  01A2  3181  21CC  3181   	fcall	_sync
  3244  01A5                     l1041:
  3245                           
  3246                           ;zyklus.c: 77:  synchron=0;
  3247  01A5  01FB               	clrf	_synchron	;volatile
  3248  01A6                     l1043:
  3249                           
  3250                           ;zyklus.c: 78:  zyklen=0;
  3251  01A6  0140               	movlb	0	; select bank0
  3252  01A7  01AA               	clrf	_zyklen	;volatile
  3253  01A8  01AB               	clrf	_zyklen+1	;volatile
  3254  01A9                     l1045:
  3255                           
  3256                           ;zyklus.c: 79:  synchron=1;
  3257  01A9  3001               	movlw	1
  3258  01AA  00F2               	movwf	??_reset_Zyklus
  3259  01AB  0872               	movf	??_reset_Zyklus,w
  3260  01AC  00FB               	movwf	_synchron	;volatile
  3261  01AD                     l255:
  3262  01AD  0008               	return
  3263  01AE                     __end_of_reset_Zyklus:
  3264                           
  3265                           	psect	text11
  3266  0100                     __ptext11:	
  3267 ;; *************** function _get_Zyklus *****************
  3268 ;; Defined at:
  3269 ;;		line 57 in file "zyklus.c"
  3270 ;; Parameters:    Size  Location     Type
  3271 ;;		None
  3272 ;; Auto vars:     Size  Location     Type
  3273 ;;		None
  3274 ;; Return value:  Size  Location     Type
  3275 ;;                  2    2[COMMON] unsigned int 
  3276 ;; Registers used:
  3277 ;;		wreg, status,2, status,0, pclath, cstack
  3278 ;; Tracked objects:
  3279 ;;		On entry : 0/0
  3280 ;;		On exit  : 0/0
  3281 ;;		Unchanged: 0/0
  3282 ;; Data sizes:     COMMON   BANK0   BANK1   BANK2   BANK3   BANK4   BANK5   BANK6   BANK7   BANK8   BANK9  BANK10  BANK1
      +1  BANK12
  3283 ;;      Params:         2       0       0       0       0       0       0       0       0       0       0       0       
      +0       0
  3284 ;;      Locals:         0       0       0       0       0       0       0       0       0       0       0       0       
      +0       0
  3285 ;;      Temps:          1       0       0       0       0       0       0       0       0       0       0       0       
      +0       0
  3286 ;;      Totals:         3       0       0       0       0       0       0       0       0       0       0       0       
      +0       0
  3287 ;;Total ram usage:        3 bytes
  3288 ;; Hardware stack levels used:    1
  3289 ;; Hardware stack levels required when called:    4
  3290 ;; This function calls:
  3291 ;;		_sync
  3292 ;; This function is called by:
  3293 ;;		_initializing
  3294 ;;		_blink
  3295 ;; This function uses a non-reentrant model
  3296 ;;
  3297                           
  3298                           
  3299                           ;psect for function _get_Zyklus
  3300  0100                     _get_Zyklus:
  3301  0100                     l1025:	
  3302                           ;incstack = 0
  3303                           ; Regs used in _get_Zyklus: [wreg+status,2+status,0+pclath+cstack]
  3304                           
  3305                           
  3306                           ;zyklus.c: 59:   static unsigned int kopie=0;;zyklus.c: 60:  sync();
  3307  0100  3181  21CC  3181   	fcall	_sync
  3308  0103                     l1027:
  3309                           
  3310                           ;zyklus.c: 61:  if (synchron)
  3311  0103  087B               	movf	_synchron,w	;volatile
  3312  0104  1903               	btfsc	3,2
  3313  0105  2907               	goto	u151
  3314  0106  2908               	goto	u150
  3315  0107                     u151:
  3316  0107  2912               	goto	l1035
  3317  0108                     u150:
  3318  0108                     l1029:
  3319                           
  3320                           ;zyklus.c: 62:  {;zyklus.c: 63:   synchron=0;
  3321  0108  01FB               	clrf	_synchron	;volatile
  3322  0109                     l1031:
  3323                           
  3324                           ;zyklus.c: 64:   kopie=zyklen;
  3325  0109  0140               	movlb	0	; select bank0
  3326  010A  082B               	movf	_zyklen+1,w	;volatile
  3327  010B  00A5               	movwf	get_Zyklus@kopie+1
  3328  010C  082A               	movf	_zyklen,w	;volatile
  3329  010D  00A4               	movwf	get_Zyklus@kopie
  3330  010E                     l1033:
  3331                           
  3332                           ;zyklus.c: 65:   synchron=1;
  3333  010E  3001               	movlw	1
  3334  010F  00F4               	movwf	??_get_Zyklus
  3335  0110  0874               	movf	??_get_Zyklus,w
  3336  0111  00FB               	movwf	_synchron	;volatile
  3337  0112                     l1035:
  3338                           
  3339                           ;zyklus.c: 67:  return kopie;
  3340  0112  0140               	movlb	0	; select bank0
  3341  0113  0825               	movf	get_Zyklus@kopie+1,w
  3342  0114  00F3               	movwf	?_get_Zyklus+1
  3343  0115  0824               	movf	get_Zyklus@kopie,w
  3344  0116  00F2               	movwf	?_get_Zyklus
  3345  0117                     l252:
  3346  0117  0008               	return
  3347  0118                     __end_of_get_Zyklus:
  3348                           
  3349                           	psect	text12
  3350  01CC                     __ptext12:	
  3351 ;; *************** function _sync *****************
  3352 ;; Defined at:
  3353 ;;		line 48 in file "zyklus.c"
  3354 ;; Parameters:    Size  Location     Type
  3355 ;;		None
  3356 ;; Auto vars:     Size  Location     Type
  3357 ;;		None
  3358 ;; Return value:  Size  Location     Type
  3359 ;;                  1    wreg      void 
  3360 ;; Registers used:
  3361 ;;		wreg, status,2, status,0
  3362 ;; Tracked objects:
  3363 ;;		On entry : 0/0
  3364 ;;		On exit  : 0/0
  3365 ;;		Unchanged: 0/0
  3366 ;; Data sizes:     COMMON   BANK0   BANK1   BANK2   BANK3   BANK4   BANK5   BANK6   BANK7   BANK8   BANK9  BANK10  BANK1
      +1  BANK12
  3367 ;;      Params:         0       0       0       0       0       0       0       0       0       0       0       0       
      +0       0
  3368 ;;      Locals:         0       0       0       0       0       0       0       0       0       0       0       0       
      +0       0
  3369 ;;      Temps:          0       0       0       0       0       0       0       0       0       0       0       0       
      +0       0
  3370 ;;      Totals:         0       0       0       0       0       0       0       0       0       0       0       0       
      +0       0
  3371 ;;Total ram usage:        0 bytes
  3372 ;; Hardware stack levels used:    1
  3373 ;; Hardware stack levels required when called:    3
  3374 ;; This function calls:
  3375 ;;		Nothing
  3376 ;; This function is called by:
  3377 ;;		_get_Zyklus
  3378 ;;		_reset_Zyklus
  3379 ;;		_get_Zyklus1
  3380 ;;		_reset_Zyklus1
  3381 ;;		_get_Zyklus2
  3382 ;;		_reset_Zyklus2
  3383 ;; This function uses a non-reentrant model
  3384 ;;
  3385                           
  3386                           
  3387                           ;psect for function _sync
  3388  01CC                     _sync:
  3389  01CC                     l1009:	
  3390                           ;incstack = 0
  3391                           ; Regs used in _sync: [wreg+status,2+status,0]
  3392                           
  3393  01CC                     l1011:	
  3394                           ;zyklus.c: 51:  while (blocked > 0);
  3395                           
  3396  01CC  087A               	movf	_blocked,w	;volatile
  3397  01CD  1D03               	btfss	3,2
  3398  01CE  29D0               	goto	u141
  3399  01CF  29D1               	goto	u140
  3400  01D0                     u141:
  3401  01D0  29CC               	goto	l1011
  3402  01D1                     u140:
  3403  01D1                     l246:
  3404  01D1  0008               	return
  3405  01D2                     __end_of_sync:
  3406                           
  3407                           	psect	text13
  3408  0170                     __ptext13:	
  3409 ;; *************** function _ZYKLUS_Initialize *****************
  3410 ;; Defined at:
  3411 ;;		line 14 in file "zyklus.c"
  3412 ;; Parameters:    Size  Location     Type
  3413 ;;		None
  3414 ;; Auto vars:     Size  Location     Type
  3415 ;;		None
  3416 ;; Return value:  Size  Location     Type
  3417 ;;                  1    wreg      void 
  3418 ;; Registers used:
  3419 ;;		wreg, status,2, status,0, pclath, cstack
  3420 ;; Tracked objects:
  3421 ;;		On entry : 0/0
  3422 ;;		On exit  : 0/0
  3423 ;;		Unchanged: 0/0
  3424 ;; Data sizes:     COMMON   BANK0   BANK1   BANK2   BANK3   BANK4   BANK5   BANK6   BANK7   BANK8   BANK9  BANK10  BANK1
      +1  BANK12
  3425 ;;      Params:         0       0       0       0       0       0       0       0       0       0       0       0       
      +0       0
  3426 ;;      Locals:         0       0       0       0       0       0       0       0       0       0       0       0       
      +0       0
  3427 ;;      Temps:          0       0       0       0       0       0       0       0       0       0       0       0       
      +0       0
  3428 ;;      Totals:         0       0       0       0       0       0       0       0       0       0       0       0       
      +0       0
  3429 ;;Total ram usage:        0 bytes
  3430 ;; Hardware stack levels used:    1
  3431 ;; Hardware stack levels required when called:    4
  3432 ;; This function calls:
  3433 ;;		_TMR0_SetInterruptHandler
  3434 ;;		_TMR0_StartTimer
  3435 ;; This function is called by:
  3436 ;;		_initializing
  3437 ;; This function uses a non-reentrant model
  3438 ;;
  3439                           
  3440                           
  3441                           ;psect for function _ZYKLUS_Initialize
  3442  0170                     _ZYKLUS_Initialize:
  3443  0170                     l1055:	
  3444                           ;incstack = 0
  3445                           ; Regs used in _ZYKLUS_Initialize: [wreg+status,2+status,0+pclath+cstack]
  3446                           
  3447                           
  3448                           ;zyklus.c: 16:    (INTCONbits.GIE = 1);
  3449  0170  178B               	bsf	11,7	;volatile
  3450                           
  3451                           ;zyklus.c: 17:    (INTCONbits.PEIE = 1);
  3452  0171  170B               	bsf	11,6	;volatile
  3453  0172                     l1057:
  3454                           
  3455                           ;zyklus.c: 18:    TMR0_SetInterruptHandler(My_InterruptHandler);
  3456  0172  3067               	movlw	low _My_InterruptHandler
  3457  0173  00F2               	movwf	TMR0_SetInterruptHandler@InterruptHandler
  3458  0174  3000               	movlw	high _My_InterruptHandler
  3459  0175  00F3               	movwf	TMR0_SetInterruptHandler@InterruptHandler+1
  3460  0176  3181  21D2  3181   	fcall	_TMR0_SetInterruptHandler
  3461  0179                     l1059:
  3462                           
  3463                           ;zyklus.c: 19:    TMR0_StartTimer();
  3464  0179  3181  21DC  3181   	fcall	_TMR0_StartTimer
  3465  017C                     l235:
  3466  017C  0008               	return
  3467  017D                     __end_of_ZYKLUS_Initialize:
  3468                           
  3469                           	psect	text14
  3470  01DC                     __ptext14:	
  3471 ;; *************** function _TMR0_StartTimer *****************
  3472 ;; Defined at:
  3473 ;;		line 87 in file "mcc_generated_files/tmr0.c"
  3474 ;; Parameters:    Size  Location     Type
  3475 ;;		None
  3476 ;; Auto vars:     Size  Location     Type
  3477 ;;		None
  3478 ;; Return value:  Size  Location     Type
  3479 ;;                  1    wreg      void 
  3480 ;; Registers used:
  3481 ;;		None
  3482 ;; Tracked objects:
  3483 ;;		On entry : 0/0
  3484 ;;		On exit  : 0/0
  3485 ;;		Unchanged: 0/0
  3486 ;; Data sizes:     COMMON   BANK0   BANK1   BANK2   BANK3   BANK4   BANK5   BANK6   BANK7   BANK8   BANK9  BANK10  BANK1
      +1  BANK12
  3487 ;;      Params:         0       0       0       0       0       0       0       0       0       0       0       0       
      +0       0
  3488 ;;      Locals:         0       0       0       0       0       0       0       0       0       0       0       0       
      +0       0
  3489 ;;      Temps:          0       0       0       0       0       0       0       0       0       0       0       0       
      +0       0
  3490 ;;      Totals:         0       0       0       0       0       0       0       0       0       0       0       0       
      +0       0
  3491 ;;Total ram usage:        0 bytes
  3492 ;; Hardware stack levels used:    1
  3493 ;; Hardware stack levels required when called:    3
  3494 ;; This function calls:
  3495 ;;		Nothing
  3496 ;; This function is called by:
  3497 ;;		_ZYKLUS_Initialize
  3498 ;; This function uses a non-reentrant model
  3499 ;;
  3500                           
  3501                           
  3502                           ;psect for function _TMR0_StartTimer
  3503  01DC                     _TMR0_StartTimer:
  3504  01DC                     l853:	
  3505                           ;incstack = 0
  3506                           ; Regs used in _TMR0_StartTimer: []
  3507                           
  3508                           
  3509                           ;mcc_generated_files/tmr0.c: 90:     T0CON0bits.T0EN = 1;
  3510  01DC  014B               	movlb	11	; select bank11
  3511  01DD  179E               	bsf	30,7	;volatile
  3512  01DE                     l132:
  3513  01DE  0008               	return
  3514  01DF                     __end_of_TMR0_StartTimer:
  3515                           
  3516                           	psect	text15
  3517  017D                     __ptext15:	
  3518 ;; *************** function _SYSTEM_Initialize *****************
  3519 ;; Defined at:
  3520 ;;		line 50 in file "mcc_generated_files/mcc.c"
  3521 ;; Parameters:    Size  Location     Type
  3522 ;;		None
  3523 ;; Auto vars:     Size  Location     Type
  3524 ;;		None
  3525 ;; Return value:  Size  Location     Type
  3526 ;;                  1    wreg      void 
  3527 ;; Registers used:
  3528 ;;		wreg, status,2, status,0, pclath, cstack
  3529 ;; Tracked objects:
  3530 ;;		On entry : 0/0
  3531 ;;		On exit  : 0/0
  3532 ;;		Unchanged: 0/0
  3533 ;; Data sizes:     COMMON   BANK0   BANK1   BANK2   BANK3   BANK4   BANK5   BANK6   BANK7   BANK8   BANK9  BANK10  BANK1
      +1  BANK12
  3534 ;;      Params:         0       0       0       0       0       0       0       0       0       0       0       0       
      +0       0
  3535 ;;      Locals:         0       0       0       0       0       0       0       0       0       0       0       0       
      +0       0
  3536 ;;      Temps:          0       0       0       0       0       0       0       0       0       0       0       0       
      +0       0
  3537 ;;      Totals:         0       0       0       0       0       0       0       0       0       0       0       0       
      +0       0
  3538 ;;Total ram usage:        0 bytes
  3539 ;; Hardware stack levels used:    1
  3540 ;; Hardware stack levels required when called:    5
  3541 ;; This function calls:
  3542 ;;		_OSCILLATOR_Initialize
  3543 ;;		_PIN_MANAGER_Initialize
  3544 ;;		_PMD_Initialize
  3545 ;;		_TMR0_Initialize
  3546 ;; This function is called by:
  3547 ;;		_initializing
  3548 ;; This function uses a non-reentrant model
  3549 ;;
  3550                           
  3551                           
  3552                           ;psect for function _SYSTEM_Initialize
  3553  017D                     _SYSTEM_Initialize:
  3554  017D                     l1047:	
  3555                           ;incstack = 0
  3556                           ; Regs used in _SYSTEM_Initialize: [wreg+status,2+status,0+pclath+cstack]
  3557                           
  3558                           
  3559                           ;mcc_generated_files/mcc.c: 52:     PMD_Initialize();
  3560  017D  3181  21B8  3181   	fcall	_PMD_Initialize
  3561  0180                     l1049:
  3562                           
  3563                           ;mcc_generated_files/mcc.c: 53:     PIN_MANAGER_Initialize();
  3564  0180  3180  209A  3181   	fcall	_PIN_MANAGER_Initialize
  3565  0183                     l1051:
  3566                           
  3567                           ;mcc_generated_files/mcc.c: 54:     OSCILLATOR_Initialize();
  3568  0183  3181  21AE  3181   	fcall	_OSCILLATOR_Initialize
  3569  0186                     l1053:
  3570                           
  3571                           ;mcc_generated_files/mcc.c: 55:     TMR0_Initialize();
  3572  0186  3181  2118  3181   	fcall	_TMR0_Initialize
  3573  0189                     l48:
  3574  0189  0008               	return
  3575  018A                     __end_of_SYSTEM_Initialize:
  3576                           
  3577                           	psect	text16
  3578  0118                     __ptext16:	
  3579 ;; *************** function _TMR0_Initialize *****************
  3580 ;; Defined at:
  3581 ;;		line 61 in file "mcc_generated_files/tmr0.c"
  3582 ;; Parameters:    Size  Location     Type
  3583 ;;		None
  3584 ;; Auto vars:     Size  Location     Type
  3585 ;;		None
  3586 ;; Return value:  Size  Location     Type
  3587 ;;                  1    wreg      void 
  3588 ;; Registers used:
  3589 ;;		wreg, status,2, status,0, pclath, cstack
  3590 ;; Tracked objects:
  3591 ;;		On entry : 0/0
  3592 ;;		On exit  : 0/0
  3593 ;;		Unchanged: 0/0
  3594 ;; Data sizes:     COMMON   BANK0   BANK1   BANK2   BANK3   BANK4   BANK5   BANK6   BANK7   BANK8   BANK9  BANK10  BANK1
      +1  BANK12
  3595 ;;      Params:         0       0       0       0       0       0       0       0       0       0       0       0       
      +0       0
  3596 ;;      Locals:         0       0       0       0       0       0       0       0       0       0       0       0       
      +0       0
  3597 ;;      Temps:          0       0       0       0       0       0       0       0       0       0       0       0       
      +0       0
  3598 ;;      Totals:         0       0       0       0       0       0       0       0       0       0       0       0       
      +0       0
  3599 ;;Total ram usage:        0 bytes
  3600 ;; Hardware stack levels used:    1
  3601 ;; Hardware stack levels required when called:    4
  3602 ;; This function calls:
  3603 ;;		_TMR0_SetInterruptHandler
  3604 ;; This function is called by:
  3605 ;;		_SYSTEM_Initialize
  3606 ;; This function uses a non-reentrant model
  3607 ;;
  3608                           
  3609                           
  3610                           ;psect for function _TMR0_Initialize
  3611  0118                     _TMR0_Initialize:
  3612  0118                     l1013:	
  3613                           ;incstack = 0
  3614                           ; Regs used in _TMR0_Initialize: [wreg+status,2+status,0+pclath+cstack]
  3615                           
  3616                           
  3617                           ;mcc_generated_files/tmr0.c: 66:     T0CON1 = 0x40;
  3618  0118  3040               	movlw	64
  3619  0119  014B               	movlb	11	; select bank11
  3620  011A  009F               	movwf	31	;volatile
  3621                           
  3622                           ;mcc_generated_files/tmr0.c: 69:     TMR0H = 0xF9;
  3623  011B  30F9               	movlw	249
  3624  011C  009D               	movwf	29	;volatile
  3625  011D                     l1015:
  3626                           
  3627                           ;mcc_generated_files/tmr0.c: 72:     TMR0L = 0x00;
  3628  011D  019C               	clrf	28	;volatile
  3629  011E                     l1017:
  3630                           
  3631                           ;mcc_generated_files/tmr0.c: 75:     PIR0bits.TMR0IF = 0;
  3632  011E  014E               	movlb	14	; select bank14
  3633  011F  128C               	bcf	12,5	;volatile
  3634  0120                     l1019:
  3635                           
  3636                           ;mcc_generated_files/tmr0.c: 78:     PIE0bits.TMR0IE = 1;
  3637  0120  1696               	bsf	22,5	;volatile
  3638  0121                     l1021:
  3639                           
  3640                           ;mcc_generated_files/tmr0.c: 81:     TMR0_SetInterruptHandler(TMR0_DefaultInterruptHandl
      +                          er);
  3641  0121  30E0               	movlw	low _TMR0_DefaultInterruptHandler
  3642  0122  00F2               	movwf	TMR0_SetInterruptHandler@InterruptHandler
  3643  0123  3001               	movlw	high _TMR0_DefaultInterruptHandler
  3644  0124  00F3               	movwf	TMR0_SetInterruptHandler@InterruptHandler+1
  3645  0125  3181  21D2  3181   	fcall	_TMR0_SetInterruptHandler
  3646  0128                     l1023:
  3647                           
  3648                           ;mcc_generated_files/tmr0.c: 84:     T0CON0 = 0x80;
  3649  0128  3080               	movlw	128
  3650  0129  014B               	movlb	11	; select bank11
  3651  012A  009E               	movwf	30	;volatile
  3652  012B                     l129:
  3653  012B  0008               	return
  3654  012C                     __end_of_TMR0_Initialize:
  3655                           
  3656                           	psect	text17
  3657  01D2                     __ptext17:	
  3658 ;; *************** function _TMR0_SetInterruptHandler *****************
  3659 ;; Defined at:
  3660 ;;		line 134 in file "mcc_generated_files/tmr0.c"
  3661 ;; Parameters:    Size  Location     Type
  3662 ;;  InterruptHan    2    2[COMMON] PTR FTN()void 
  3663 ;;		 -> My_InterruptHandler(1), TMR0_DefaultInterruptHandler(1), 
  3664 ;; Auto vars:     Size  Location     Type
  3665 ;;		None
  3666 ;; Return value:  Size  Location     Type
  3667 ;;                  1    wreg      void 
  3668 ;; Registers used:
  3669 ;;		wreg
  3670 ;; Tracked objects:
  3671 ;;		On entry : 0/0
  3672 ;;		On exit  : 0/0
  3673 ;;		Unchanged: 0/0
  3674 ;; Data sizes:     COMMON   BANK0   BANK1   BANK2   BANK3   BANK4   BANK5   BANK6   BANK7   BANK8   BANK9  BANK10  BANK1
      +1  BANK12
  3675 ;;      Params:         2       0       0       0       0       0       0       0       0       0       0       0       
      +0       0
  3676 ;;      Locals:         0       0       0       0       0       0       0       0       0       0       0       0       
      +0       0
  3677 ;;      Temps:          0       0       0       0       0       0       0       0       0       0       0       0       
      +0       0
  3678 ;;      Totals:         2       0       0       0       0       0       0       0       0       0       0       0       
      +0       0
  3679 ;;Total ram usage:        2 bytes
  3680 ;; Hardware stack levels used:    1
  3681 ;; Hardware stack levels required when called:    3
  3682 ;; This function calls:
  3683 ;;		Nothing
  3684 ;; This function is called by:
  3685 ;;		_TMR0_Initialize
  3686 ;;		_ZYKLUS_Initialize
  3687 ;; This function uses a non-reentrant model
  3688 ;;
  3689                           
  3690                           
  3691                           ;psect for function _TMR0_SetInterruptHandler
  3692  01D2                     _TMR0_SetInterruptHandler:
  3693  01D2                     l1007:	
  3694                           ;incstack = 0
  3695                           ; Regs used in _TMR0_SetInterruptHandler: [wreg]
  3696                           
  3697                           
  3698                           ;mcc_generated_files/tmr0.c: 135:     TMR0_InterruptHandler = InterruptHandler;
  3699  01D2  0873               	movf	TMR0_SetInterruptHandler@InterruptHandler+1,w
  3700  01D3  0140               	movlb	0	; select bank0
  3701  01D4  00B3               	movwf	_TMR0_InterruptHandler+1
  3702  01D5  0872               	movf	TMR0_SetInterruptHandler@InterruptHandler,w
  3703  01D6  00B2               	movwf	_TMR0_InterruptHandler
  3704  01D7                     l151:
  3705  01D7  0008               	return
  3706  01D8                     __end_of_TMR0_SetInterruptHandler:
  3707                           
  3708                           	psect	text18
  3709  01B8                     __ptext18:	
  3710 ;; *************** function _PMD_Initialize *****************
  3711 ;; Defined at:
  3712 ;;		line 74 in file "mcc_generated_files/mcc.c"
  3713 ;; Parameters:    Size  Location     Type
  3714 ;;		None
  3715 ;; Auto vars:     Size  Location     Type
  3716 ;;		None
  3717 ;; Return value:  Size  Location     Type
  3718 ;;                  1    wreg      void 
  3719 ;; Registers used:
  3720 ;;		status,2
  3721 ;; Tracked objects:
  3722 ;;		On entry : 0/0
  3723 ;;		On exit  : 0/0
  3724 ;;		Unchanged: 0/0
  3725 ;; Data sizes:     COMMON   BANK0   BANK1   BANK2   BANK3   BANK4   BANK5   BANK6   BANK7   BANK8   BANK9  BANK10  BANK1
      +1  BANK12
  3726 ;;      Params:         0       0       0       0       0       0       0       0       0       0       0       0       
      +0       0
  3727 ;;      Locals:         0       0       0       0       0       0       0       0       0       0       0       0       
      +0       0
  3728 ;;      Temps:          0       0       0       0       0       0       0       0       0       0       0       0       
      +0       0
  3729 ;;      Totals:         0       0       0       0       0       0       0       0       0       0       0       0       
      +0       0
  3730 ;;Total ram usage:        0 bytes
  3731 ;; Hardware stack levels used:    1
  3732 ;; Hardware stack levels required when called:    3
  3733 ;; This function calls:
  3734 ;;		Nothing
  3735 ;; This function is called by:
  3736 ;;		_SYSTEM_Initialize
  3737 ;; This function uses a non-reentrant model
  3738 ;;
  3739                           
  3740                           
  3741                           ;psect for function _PMD_Initialize
  3742  01B8                     _PMD_Initialize:
  3743  01B8                     l805:	
  3744                           ;incstack = 0
  3745                           ; Regs used in _PMD_Initialize: [status,2]
  3746                           
  3747                           
  3748                           ;mcc_generated_files/mcc.c: 77:     PMD0 = 0x00;
  3749  01B8  014F               	movlb	15	; select bank15
  3750  01B9  0196               	clrf	22	;volatile
  3751                           
  3752                           ;mcc_generated_files/mcc.c: 79:     PMD1 = 0x00;
  3753  01BA  0197               	clrf	23	;volatile
  3754                           
  3755                           ;mcc_generated_files/mcc.c: 81:     PMD2 = 0x00;
  3756  01BB  0198               	clrf	24	;volatile
  3757                           
  3758                           ;mcc_generated_files/mcc.c: 83:     PMD3 = 0x00;
  3759  01BC  0199               	clrf	25	;volatile
  3760                           
  3761                           ;mcc_generated_files/mcc.c: 85:     PMD4 = 0x00;
  3762  01BD  019A               	clrf	26	;volatile
  3763                           
  3764                           ;mcc_generated_files/mcc.c: 87:     PMD5 = 0x00;
  3765  01BE  019B               	clrf	27	;volatile
  3766  01BF                     l54:
  3767  01BF  0008               	return
  3768  01C0                     __end_of_PMD_Initialize:
  3769                           
  3770                           	psect	text19
  3771  009A                     __ptext19:	
  3772 ;; *************** function _PIN_MANAGER_Initialize *****************
  3773 ;; Defined at:
  3774 ;;		line 55 in file "mcc_generated_files/pin_manager.c"
  3775 ;; Parameters:    Size  Location     Type
  3776 ;;		None
  3777 ;; Auto vars:     Size  Location     Type
  3778 ;;		None
  3779 ;; Return value:  Size  Location     Type
  3780 ;;                  1    wreg      void 
  3781 ;; Registers used:
  3782 ;;		wreg, status,2
  3783 ;; Tracked objects:
  3784 ;;		On entry : 0/0
  3785 ;;		On exit  : 0/0
  3786 ;;		Unchanged: 0/0
  3787 ;; Data sizes:     COMMON   BANK0   BANK1   BANK2   BANK3   BANK4   BANK5   BANK6   BANK7   BANK8   BANK9  BANK10  BANK1
      +1  BANK12
  3788 ;;      Params:         0       0       0       0       0       0       0       0       0       0       0       0       
      +0       0
  3789 ;;      Locals:         0       0       0       0       0       0       0       0       0       0       0       0       
      +0       0
  3790 ;;      Temps:          0       0       0       0       0       0       0       0       0       0       0       0       
      +0       0
  3791 ;;      Totals:         0       0       0       0       0       0       0       0       0       0       0       0       
      +0       0
  3792 ;;Total ram usage:        0 bytes
  3793 ;; Hardware stack levels used:    1
  3794 ;; Hardware stack levels required when called:    3
  3795 ;; This function calls:
  3796 ;;		Nothing
  3797 ;; This function is called by:
  3798 ;;		_SYSTEM_Initialize
  3799 ;; This function uses a non-reentrant model
  3800 ;;
  3801                           
  3802                           
  3803                           ;psect for function _PIN_MANAGER_Initialize
  3804  009A                     _PIN_MANAGER_Initialize:
  3805  009A                     l807:	
  3806                           ;incstack = 0
  3807                           ; Regs used in _PIN_MANAGER_Initialize: [wreg+status,2]
  3808                           
  3809                           
  3810                           ;mcc_generated_files/pin_manager.c: 60:     LATA = 0x00;
  3811  009A  0140               	movlb	0	; select bank0
  3812  009B  0198               	clrf	24	;volatile
  3813                           
  3814                           ;mcc_generated_files/pin_manager.c: 61:     LATB = 0x00;
  3815  009C  0199               	clrf	25	;volatile
  3816                           
  3817                           ;mcc_generated_files/pin_manager.c: 62:     LATC = 0x00;
  3818  009D  019A               	clrf	26	;volatile
  3819                           
  3820                           ;mcc_generated_files/pin_manager.c: 67:     TRISA = 0x00;
  3821  009E  0192               	clrf	18	;volatile
  3822  009F                     l809:
  3823                           
  3824                           ;mcc_generated_files/pin_manager.c: 68:     TRISB = 0xFF;
  3825  009F  30FF               	movlw	255
  3826  00A0  0093               	movwf	19	;volatile
  3827  00A1                     l811:
  3828                           
  3829                           ;mcc_generated_files/pin_manager.c: 69:     TRISC = 0xFF;
  3830  00A1  30FF               	movlw	255
  3831  00A2  0094               	movwf	20	;volatile
  3832                           
  3833                           ;mcc_generated_files/pin_manager.c: 74:     ANSELC = 0x00;
  3834  00A3  017E               	movlb	62	; select bank62
  3835  00A4  01CE               	clrf	78	;volatile
  3836  00A5                     l813:
  3837                           
  3838                           ;mcc_generated_files/pin_manager.c: 75:     ANSELB = 0xFF;
  3839  00A5  30FF               	movlw	255
  3840  00A6  00C3               	movwf	67	;volatile
  3841  00A7                     l815:
  3842                           
  3843                           ;mcc_generated_files/pin_manager.c: 76:     ANSELA = 0xFF;
  3844  00A7  30FF               	movlw	255
  3845  00A8  00B8               	movwf	56	;volatile
  3846                           
  3847                           ;mcc_generated_files/pin_manager.c: 81:     WPUE = 0x00;
  3848  00A9  01E5               	clrf	101	;volatile
  3849                           
  3850                           ;mcc_generated_files/pin_manager.c: 82:     WPUB = 0x00;
  3851  00AA  01C4               	clrf	68	;volatile
  3852                           
  3853                           ;mcc_generated_files/pin_manager.c: 83:     WPUA = 0x00;
  3854  00AB  01B9               	clrf	57	;volatile
  3855                           
  3856                           ;mcc_generated_files/pin_manager.c: 84:     WPUC = 0x00;
  3857  00AC  01CF               	clrf	79	;volatile
  3858                           
  3859                           ;mcc_generated_files/pin_manager.c: 89:     ODCONA = 0x00;
  3860  00AD  01BA               	clrf	58	;volatile
  3861                           
  3862                           ;mcc_generated_files/pin_manager.c: 90:     ODCONB = 0x00;
  3863  00AE  01C5               	clrf	69	;volatile
  3864                           
  3865                           ;mcc_generated_files/pin_manager.c: 91:     ODCONC = 0x00;
  3866  00AF  01D0               	clrf	80	;volatile
  3867  00B0                     l817:
  3868                           
  3869                           ;mcc_generated_files/pin_manager.c: 96:     SLRCONA = 0xFF;
  3870  00B0  30FF               	movlw	255
  3871  00B1  00BB               	movwf	59	;volatile
  3872  00B2                     l819:
  3873                           
  3874                           ;mcc_generated_files/pin_manager.c: 97:     SLRCONB = 0xFF;
  3875  00B2  30FF               	movlw	255
  3876  00B3  00C6               	movwf	70	;volatile
  3877  00B4                     l821:
  3878                           
  3879                           ;mcc_generated_files/pin_manager.c: 98:     SLRCONC = 0xFF;
  3880  00B4  30FF               	movlw	255
  3881  00B5  00D1               	movwf	81	;volatile
  3882  00B6                     l823:
  3883                           
  3884                           ;mcc_generated_files/pin_manager.c: 103:     INLVLA = 0xFF;
  3885  00B6  30FF               	movlw	255
  3886  00B7  00BC               	movwf	60	;volatile
  3887  00B8                     l825:
  3888                           
  3889                           ;mcc_generated_files/pin_manager.c: 104:     INLVLB = 0xFF;
  3890  00B8  30FF               	movlw	255
  3891  00B9  00C7               	movwf	71	;volatile
  3892  00BA                     l827:
  3893                           
  3894                           ;mcc_generated_files/pin_manager.c: 105:     INLVLC = 0xFF;
  3895  00BA  30FF               	movlw	255
  3896  00BB  00D2               	movwf	82	;volatile
  3897  00BC                     l829:
  3898                           
  3899                           ;mcc_generated_files/pin_manager.c: 106:     INLVLE = 0x08;
  3900  00BC  3008               	movlw	8
  3901  00BD  00E8               	movwf	104	;volatile
  3902  00BE                     l103:
  3903  00BE  0008               	return
  3904  00BF                     __end_of_PIN_MANAGER_Initialize:
  3905                           
  3906                           	psect	text20
  3907  01AE                     __ptext20:	
  3908 ;; *************** function _OSCILLATOR_Initialize *****************
  3909 ;; Defined at:
  3910 ;;		line 58 in file "mcc_generated_files/mcc.c"
  3911 ;; Parameters:    Size  Location     Type
  3912 ;;		None
  3913 ;; Auto vars:     Size  Location     Type
  3914 ;;		None
  3915 ;; Return value:  Size  Location     Type
  3916 ;;                  1    wreg      void 
  3917 ;; Registers used:
  3918 ;;		wreg, status,2
  3919 ;; Tracked objects:
  3920 ;;		On entry : 0/0
  3921 ;;		On exit  : 0/0
  3922 ;;		Unchanged: 0/0
  3923 ;; Data sizes:     COMMON   BANK0   BANK1   BANK2   BANK3   BANK4   BANK5   BANK6   BANK7   BANK8   BANK9  BANK10  BANK1
      +1  BANK12
  3924 ;;      Params:         0       0       0       0       0       0       0       0       0       0       0       0       
      +0       0
  3925 ;;      Locals:         0       0       0       0       0       0       0       0       0       0       0       0       
      +0       0
  3926 ;;      Temps:          0       0       0       0       0       0       0       0       0       0       0       0       
      +0       0
  3927 ;;      Totals:         0       0       0       0       0       0       0       0       0       0       0       0       
      +0       0
  3928 ;;Total ram usage:        0 bytes
  3929 ;; Hardware stack levels used:    1
  3930 ;; Hardware stack levels required when called:    3
  3931 ;; This function calls:
  3932 ;;		Nothing
  3933 ;; This function is called by:
  3934 ;;		_SYSTEM_Initialize
  3935 ;; This function uses a non-reentrant model
  3936 ;;
  3937                           
  3938                           
  3939                           ;psect for function _OSCILLATOR_Initialize
  3940  01AE                     _OSCILLATOR_Initialize:
  3941  01AE                     l831:	
  3942                           ;incstack = 0
  3943                           ; Regs used in _OSCILLATOR_Initialize: [wreg+status,2]
  3944                           
  3945                           
  3946                           ;mcc_generated_files/mcc.c: 61:     OSCCON1 = 0x62;
  3947  01AE  3062               	movlw	98
  3948  01AF  0151               	movlb	17	; select bank17
  3949  01B0  008D               	movwf	13	;volatile
  3950  01B1                     l833:
  3951                           
  3952                           ;mcc_generated_files/mcc.c: 63:     OSCCON3 = 0x00;
  3953  01B1  018F               	clrf	15	;volatile
  3954  01B2                     l835:
  3955                           
  3956                           ;mcc_generated_files/mcc.c: 65:     OSCEN = 0x00;
  3957  01B2  0191               	clrf	17	;volatile
  3958                           
  3959                           ;mcc_generated_files/mcc.c: 67:     OSCFRQ = 0x02;
  3960  01B3  3002               	movlw	2
  3961  01B4  0093               	movwf	19	;volatile
  3962  01B5                     l837:
  3963                           
  3964                           ;mcc_generated_files/mcc.c: 69:     OSCSTAT = 0x00;
  3965  01B5  0190               	clrf	16	;volatile
  3966  01B6                     l839:
  3967                           
  3968                           ;mcc_generated_files/mcc.c: 71:     OSCTUNE = 0x00;
  3969  01B6  0192               	clrf	18	;volatile
  3970  01B7                     l51:
  3971  01B7  0008               	return
  3972  01B8                     __end_of_OSCILLATOR_Initialize:
  3973                           
  3974                           	psect	intentry
  3975  0004                     __pintentry:	
  3976 ;; *************** function _INTERRUPT_InterruptManager *****************
  3977 ;; Defined at:
  3978 ;;		line 52 in file "mcc_generated_files/interrupt_manager.c"
  3979 ;; Parameters:    Size  Location     Type
  3980 ;;		None
  3981 ;; Auto vars:     Size  Location     Type
  3982 ;;		None
  3983 ;; Return value:  Size  Location     Type
  3984 ;;                  1    wreg      void 
  3985 ;; Registers used:
  3986 ;;		wreg, status,2, status,0, pclath, cstack
  3987 ;; Tracked objects:
  3988 ;;		On entry : 0/0
  3989 ;;		On exit  : 0/0
  3990 ;;		Unchanged: 0/0
  3991 ;; Data sizes:     COMMON   BANK0   BANK1   BANK2   BANK3   BANK4   BANK5   BANK6   BANK7   BANK8   BANK9  BANK10  BANK1
      +1  BANK12
  3992 ;;      Params:         0       0       0       0       0       0       0       0       0       0       0       0       
      +0       0
  3993 ;;      Locals:         0       0       0       0       0       0       0       0       0       0       0       0       
      +0       0
  3994 ;;      Temps:          0       0       0       0       0       0       0       0       0       0       0       0       
      +0       0
  3995 ;;      Totals:         0       0       0       0       0       0       0       0       0       0       0       0       
      +0       0
  3996 ;;Total ram usage:        0 bytes
  3997 ;; Hardware stack levels used:    1
  3998 ;; Hardware stack levels required when called:    2
  3999 ;; This function calls:
  4000 ;;		_TMR0_ISR
  4001 ;; This function is called by:
  4002 ;;		Interrupt level 1
  4003 ;; This function uses a non-reentrant model
  4004 ;;
  4005                           
  4006  0004                     _INTERRUPT_InterruptManager:
  4007                           
  4008                           ;incstack = 0
  4009  0004  147E               	bsf	int$flags,0	;set compiler interrupt flag (level 1)
  4010                           
  4011                           ; Regs used in _INTERRUPT_InterruptManager: [wreg+status,2+status,0+pclath+cstack]
  4012  0005  3180               	pagesel	$
  4013  0006                     i1l1159:
  4014                           
  4015                           ;mcc_generated_files/interrupt_manager.c: 55:     if(PIE0bits.TMR0IE == 1 && PIR0bits.TM
      +                          R0IF == 1)
  4016  0006  014E               	movlb	14	; select bank14
  4017  0007  1E96               	btfss	22,5	;volatile
  4018  0008  280A               	goto	u25_21
  4019  0009  280B               	goto	u25_20
  4020  000A                     u25_21:
  4021  000A  2812               	goto	i1l13
  4022  000B                     u25_20:
  4023  000B                     i1l1161:
  4024  000B  1E8C               	btfss	12,5	;volatile
  4025  000C  280E               	goto	u26_21
  4026  000D  280F               	goto	u26_20
  4027  000E                     u26_21:
  4028  000E  2812               	goto	i1l13
  4029  000F                     u26_20:
  4030  000F                     i1l1163:
  4031                           
  4032                           ;mcc_generated_files/interrupt_manager.c: 56:     {;mcc_generated_files/interrupt_manage
      +                          r.c: 57:         TMR0_ISR();
  4033  000F  3181  2161  3180   	fcall	_TMR0_ISR
  4034  0012                     i1l13:	
  4035                           ;mcc_generated_files/interrupt_manager.c: 58:     }
  4036                           
  4037  0012  107E               	bcf	int$flags,0	;clear compiler interrupt flag (level 1)
  4038  0013  0009               	retfie
  4039  0014                     __end_of_INTERRUPT_InterruptManager:
  4040                           
  4041                           	psect	text22
  4042  0161                     __ptext22:	
  4043 ;; *************** function _TMR0_ISR *****************
  4044 ;; Defined at:
  4045 ;;		line 121 in file "mcc_generated_files/tmr0.c"
  4046 ;; Parameters:    Size  Location     Type
  4047 ;;		None
  4048 ;; Auto vars:     Size  Location     Type
  4049 ;;		None
  4050 ;; Return value:  Size  Location     Type
  4051 ;;                  1    wreg      void 
  4052 ;; Registers used:
  4053 ;;		wreg, status,2, status,0, pclath, cstack
  4054 ;; Tracked objects:
  4055 ;;		On entry : 0/0
  4056 ;;		On exit  : 0/0
  4057 ;;		Unchanged: 0/0
  4058 ;; Data sizes:     COMMON   BANK0   BANK1   BANK2   BANK3   BANK4   BANK5   BANK6   BANK7   BANK8   BANK9  BANK10  BANK1
      +1  BANK12
  4059 ;;      Params:         0       0       0       0       0       0       0       0       0       0       0       0       
      +0       0
  4060 ;;      Locals:         0       0       0       0       0       0       0       0       0       0       0       0       
      +0       0
  4061 ;;      Temps:          0       0       0       0       0       0       0       0       0       0       0       0       
      +0       0
  4062 ;;      Totals:         0       0       0       0       0       0       0       0       0       0       0       0       
      +0       0
  4063 ;;Total ram usage:        0 bytes
  4064 ;; Hardware stack levels used:    1
  4065 ;; Hardware stack levels required when called:    1
  4066 ;; This function calls:
  4067 ;;		Absolute function
  4068 ;;		_My_InterruptHandler
  4069 ;;		_TMR0_DefaultInterruptHandler
  4070 ;; This function is called by:
  4071 ;;		_INTERRUPT_InterruptManager
  4072 ;; This function uses a non-reentrant model
  4073 ;;
  4074                           
  4075                           
  4076                           ;psect for function _TMR0_ISR
  4077  0161                     _TMR0_ISR:
  4078  0161                     i1l1139:	
  4079                           ;incstack = 0
  4080                           ; Regs used in _TMR0_ISR: [wreg+status,2+status,0+pclath+cstack]
  4081                           
  4082                           
  4083                           ;mcc_generated_files/tmr0.c: 124:     PIR0bits.TMR0IF = 0;
  4084  0161  014E               	movlb	14	; select bank14
  4085  0162  128C               	bcf	12,5	;volatile
  4086  0163                     i1l1141:
  4087                           
  4088                           ;mcc_generated_files/tmr0.c: 125:     if(TMR0_InterruptHandler)
  4089  0163  0140               	movlb	0	; select bank0
  4090  0164  0832               	movf	_TMR0_InterruptHandler,w
  4091  0165  0433               	iorwf	_TMR0_InterruptHandler+1,w
  4092  0166  1903               	btfsc	3,2
  4093  0167  2969               	goto	u22_21
  4094  0168  296A               	goto	u22_20
  4095  0169                     u22_21:
  4096  0169  296F               	goto	i1l148
  4097  016A                     u22_20:
  4098  016A                     i1l1143:
  4099                           
  4100                           ;mcc_generated_files/tmr0.c: 126:     {;mcc_generated_files/tmr0.c: 127:         TMR0_In
      +                          terruptHandler();
  4101  016A  0833               	movf	_TMR0_InterruptHandler+1,w
  4102  016B  008A               	movwf	10
  4103  016C  0832               	movf	_TMR0_InterruptHandler,w
  4104  016D  000A               	callw
  4105  016E  3181               	pagesel	$
  4106  016F                     i1l148:
  4107  016F  0008               	return
  4108  0170                     __end_of_TMR0_ISR:
  4109                           
  4110                           	psect	text23
  4111  0067                     __ptext23:	
  4112 ;; *************** function _My_InterruptHandler *****************
  4113 ;; Defined at:
  4114 ;;		line 24 in file "zyklus.c"
  4115 ;; Parameters:    Size  Location     Type
  4116 ;;		None
  4117 ;; Auto vars:     Size  Location     Type
  4118 ;;		None
  4119 ;; Return value:  Size  Location     Type
  4120 ;;                  1    wreg      void 
  4121 ;; Registers used:
  4122 ;;		wreg, status,2, status,0
  4123 ;; Tracked objects:
  4124 ;;		On entry : 0/0
  4125 ;;		On exit  : 0/0
  4126 ;;		Unchanged: 0/0
  4127 ;; Data sizes:     COMMON   BANK0   BANK1   BANK2   BANK3   BANK4   BANK5   BANK6   BANK7   BANK8   BANK9  BANK10  BANK1
      +1  BANK12
  4128 ;;      Params:         0       0       0       0       0       0       0       0       0       0       0       0       
      +0       0
  4129 ;;      Locals:         0       0       0       0       0       0       0       0       0       0       0       0       
      +0       0
  4130 ;;      Temps:          2       0       0       0       0       0       0       0       0       0       0       0       
      +0       0
  4131 ;;      Totals:         2       0       0       0       0       0       0       0       0       0       0       0       
      +0       0
  4132 ;;Total ram usage:        2 bytes
  4133 ;; Hardware stack levels used:    1
  4134 ;; This function calls:
  4135 ;;		Nothing
  4136 ;; This function is called by:
  4137 ;;		_ZYKLUS_Initialize
  4138 ;;		_TMR0_ISR
  4139 ;; This function uses a non-reentrant model
  4140 ;;
  4141                           
  4142                           
  4143                           ;psect for function _My_InterruptHandler
  4144  0067                     _My_InterruptHandler:
  4145  0067                     i1l1119:	
  4146                           ;incstack = 0
  4147                           ; Regs used in _My_InterruptHandler: [wreg+status,2+status,0]
  4148                           
  4149                           
  4150                           ;zyklus.c: 27:  if (synchron)
  4151  0067  087B               	movf	_synchron,w	;volatile
  4152  0068  1903               	btfsc	3,2
  4153  0069  286B               	goto	u21_21
  4154  006A  286C               	goto	u21_20
  4155  006B                     u21_21:
  4156  006B  2895               	goto	i1l1137
  4157  006C                     u21_20:
  4158  006C                     i1l1121:
  4159                           
  4160                           ;zyklus.c: 28:  {;zyklus.c: 29:   synchron=0;
  4161  006C  01FB               	clrf	_synchron	;volatile
  4162  006D                     i1l1123:
  4163                           
  4164                           ;zyklus.c: 30:   zyklen+=(unsigned int)blocked;
  4165  006D  087A               	movf	_blocked,w	;volatile
  4166  006E  00F0               	movwf	??_My_InterruptHandler
  4167  006F  01F1               	clrf	??_My_InterruptHandler+1
  4168  0070  0870               	movf	??_My_InterruptHandler,w
  4169  0071  0140               	movlb	0	; select bank0
  4170  0072  07AA               	addwf	_zyklen,f	;volatile
  4171  0073  0871               	movf	??_My_InterruptHandler+1,w
  4172  0074  3DAB               	addwfc	_zyklen+1,f	;volatile
  4173  0075                     i1l1125:
  4174                           
  4175                           ;zyklus.c: 31:   zyklen++;
  4176  0075  3001               	movlw	1
  4177  0076  07AA               	addwf	_zyklen,f	;volatile
  4178  0077  3000               	movlw	0
  4179  0078  3DAB               	addwfc	_zyklen+1,f	;volatile
  4180  0079                     i1l1127:
  4181                           
  4182                           ;zyklus.c: 32:   zyklen1+=(unsigned int)blocked;
  4183  0079  087A               	movf	_blocked,w	;volatile
  4184  007A  00F0               	movwf	??_My_InterruptHandler
  4185  007B  01F1               	clrf	??_My_InterruptHandler+1
  4186  007C  0870               	movf	??_My_InterruptHandler,w
  4187  007D  07A8               	addwf	_zyklen1,f	;volatile
  4188  007E  0871               	movf	??_My_InterruptHandler+1,w
  4189  007F  3DA9               	addwfc	_zyklen1+1,f	;volatile
  4190  0080                     i1l1129:
  4191                           
  4192                           ;zyklus.c: 33:   zyklen1++;
  4193  0080  3001               	movlw	1
  4194  0081  07A8               	addwf	_zyklen1,f	;volatile
  4195  0082  3000               	movlw	0
  4196  0083  3DA9               	addwfc	_zyklen1+1,f	;volatile
  4197  0084                     i1l1131:
  4198                           
  4199                           ;zyklus.c: 34:   zyklen2+=(unsigned int)blocked;
  4200  0084  087A               	movf	_blocked,w	;volatile
  4201  0085  00F0               	movwf	??_My_InterruptHandler
  4202  0086  01F1               	clrf	??_My_InterruptHandler+1
  4203  0087  0870               	movf	??_My_InterruptHandler,w
  4204  0088  07A6               	addwf	_zyklen2,f	;volatile
  4205  0089  0871               	movf	??_My_InterruptHandler+1,w
  4206  008A  3DA7               	addwfc	_zyklen2+1,f	;volatile
  4207  008B                     i1l1133:
  4208                           
  4209                           ;zyklus.c: 35:   zyklen2++;
  4210  008B  3001               	movlw	1
  4211  008C  07A6               	addwf	_zyklen2,f	;volatile
  4212  008D  3000               	movlw	0
  4213  008E  3DA7               	addwfc	_zyklen2+1,f	;volatile
  4214                           
  4215                           ;zyklus.c: 36:   blocked=0;
  4216  008F  01FA               	clrf	_blocked	;volatile
  4217  0090                     i1l1135:
  4218                           
  4219                           ;zyklus.c: 37:   synchron=1;
  4220  0090  3001               	movlw	1
  4221  0091  00F0               	movwf	??_My_InterruptHandler
  4222  0092  0870               	movf	??_My_InterruptHandler,w
  4223  0093  00FB               	movwf	_synchron	;volatile
  4224                           
  4225                           ;zyklus.c: 38:  }
  4226  0094  2899               	goto	i1l240
  4227  0095                     i1l1137:
  4228                           
  4229                           ;zyklus.c: 40:  {;zyklus.c: 41:   blocked++;
  4230  0095  3001               	movlw	1
  4231  0096  00F0               	movwf	??_My_InterruptHandler
  4232  0097  0870               	movf	??_My_InterruptHandler,w
  4233  0098  07FA               	addwf	_blocked,f	;volatile
  4234  0099                     i1l240:
  4235  0099  0008               	return
  4236  009A                     __end_of_My_InterruptHandler:
  4237                           
  4238                           	psect	text24
  4239  01E0                     __ptext24:	
  4240 ;; *************** function _TMR0_DefaultInterruptHandler *****************
  4241 ;; Defined at:
  4242 ;;		line 138 in file "mcc_generated_files/tmr0.c"
  4243 ;; Parameters:    Size  Location     Type
  4244 ;;		None
  4245 ;; Auto vars:     Size  Location     Type
  4246 ;;		None
  4247 ;; Return value:  Size  Location     Type
  4248 ;;                  1    wreg      void 
  4249 ;; Registers used:
  4250 ;;		None
  4251 ;; Tracked objects:
  4252 ;;		On entry : 0/0
  4253 ;;		On exit  : 0/0
  4254 ;;		Unchanged: 0/0
  4255 ;; Data sizes:     COMMON   BANK0   BANK1   BANK2   BANK3   BANK4   BANK5   BANK6   BANK7   BANK8   BANK9  BANK10  BANK1
      +1  BANK12
  4256 ;;      Params:         0       0       0       0       0       0       0       0       0       0       0       0       
      +0       0
  4257 ;;      Locals:         0       0       0       0       0       0       0       0       0       0       0       0       
      +0       0
  4258 ;;      Temps:          0       0       0       0       0       0       0       0       0       0       0       0       
      +0       0
  4259 ;;      Totals:         0       0       0       0       0       0       0       0       0       0       0       0       
      +0       0
  4260 ;;Total ram usage:        0 bytes
  4261 ;; Hardware stack levels used:    1
  4262 ;; This function calls:
  4263 ;;		Nothing
  4264 ;; This function is called by:
  4265 ;;		_TMR0_Initialize
  4266 ;;		_TMR0_ISR
  4267 ;; This function uses a non-reentrant model
  4268 ;;
  4269                           
  4270                           
  4271                           ;psect for function _TMR0_DefaultInterruptHandler
  4272  01E0                     _TMR0_DefaultInterruptHandler:
  4273  01E0                     i1l154:	
  4274                           ;incstack = 0
  4275                           ; Regs used in _TMR0_DefaultInterruptHandler: []
  4276                           
  4277  01E0  0008               	return
  4278  01E1                     __end_of_TMR0_DefaultInterruptHandler:
  4279  007E                     btemp	set	126	;btemp
  4280  007E                     int$flags	set	126
  4281  007E                     wtemp0	set	126
  4282                           
  4283                           	psect	config
  4284                           
  4285                           ;Config register CONFIG1 @ 0x8007
  4286                           ;	External Oscillator mode selection bits
  4287                           ;	FEXTOSC = OFF, Oscillator not enabled
  4288                           ;	Power-up default value for COSC bits
  4289                           ;	RSTOSC = HFINT1, HFINTOSC (1MHz)
  4290                           ;	Clock Out Enable bit
  4291                           ;	CLKOUTEN = OFF, CLKOUT function is disabled; i/o or oscillator function on OSC2
  4292                           ;	Clock Switch Enable bit
  4293                           ;	CSWEN = ON, Writing to NOSC and NDIV is allowed
  4294                           ;	Fail-Safe Clock Monitor Enable bit
  4295                           ;	FCMEN = ON, FSCM timer enabled
  4296  8007                     	org	32775
  4297  8007  3FEC               	dw	16364
  4298                           
  4299                           ;Config register CONFIG2 @ 0x8008
  4300                           ;	Master Clear Enable bit
  4301                           ;	MCLRE = ON, MCLR pin is Master Clear function
  4302                           ;	Power-up Timer Enable bit
  4303                           ;	PWRTE = OFF, PWRT disabled
  4304                           ;	Low-Power BOR enable bit
  4305                           ;	LPBOREN = OFF, ULPBOR disabled
  4306                           ;	Brown-out reset enable bits
  4307                           ;	BOREN = ON, Brown-out Reset Enabled, SBOREN bit is ignored
  4308                           ;	Brown-out Reset Voltage Selection
  4309                           ;	BORV = LO, Brown-out Reset Voltage (VBOR) set to 1.9V on LF, and 2.45V on F Devices
  4310                           ;	Zero-cross detect disable
  4311                           ;	ZCD = OFF, Zero-cross detect circuit is disabled at POR.
  4312                           ;	Peripheral Pin Select one-way control
  4313                           ;	PPS1WAY = ON, The PPSLOCK bit can be cleared and set only once in software
  4314                           ;	Stack Overflow/Underflow Reset Enable bit
  4315                           ;	STVREN = ON, Stack Overflow or Underflow will cause a reset
  4316  8008                     	org	32776
  4317  8008  3FFF               	dw	16383
  4318                           
  4319                           ;Config register CONFIG3 @ 0x8009
  4320                           ;	WDT Period Select bits
  4321                           ;	WDTCPS = WDTCPS_31, Divider ratio 1:65536; software control of WDTPS
  4322                           ;	WDT operating mode
  4323                           ;	WDTE = OFF, WDT Disabled, SWDTEN is ignored
  4324                           ;	WDT Window Select bits
  4325                           ;	WDTCWS = WDTCWS_7, window always open (100%); software control; keyed access not requi
      +                          red
  4326                           ;	WDT input clock selector
  4327                           ;	WDTCCS = SC, Software Control
  4328  8009                     	org	32777
  4329  8009  3F9F               	dw	16287
  4330                           
  4331                           ;Config register CONFIG4 @ 0x800A
  4332                           ;	Boot Block Size Selection bits
  4333                           ;	BBSIZE = BB512, 512 words boot block size
  4334                           ;	Boot Block Enable bit
  4335                           ;	BBEN = OFF, Boot Block disabled
  4336                           ;	SAF Enable bit
  4337                           ;	SAFEN = OFF, SAF disabled
  4338                           ;	Application Block Write Protection bit
  4339                           ;	WRTAPP = OFF, Application Block not write protected
  4340                           ;	Boot Block Write Protection bit
  4341                           ;	WRTB = OFF, Boot Block not write protected
  4342                           ;	Configuration Register Write Protection bit
  4343                           ;	WRTC = OFF, Configuration Register not write protected
  4344                           ;	Storage Area Flash Write Protection bit
  4345                           ;	WRTSAF = OFF, SAF not write protected
  4346                           ;	Low Voltage Programming Enable bit
  4347                           ;	LVP = ON, Low Voltage programming enabled. MCLR/Vpp pin function is MCLR.
  4348  800A                     	org	32778
  4349  800A  3FFF               	dw	16383
  4350                           
  4351                           ;Config register CONFIG5 @ 0x800B
  4352                           ;	UserNVM Program memory code protection bit
  4353                           ;	CP = OFF, UserNVM code protection disabled
  4354  800B                     	org	32779
  4355  800B  3FFF               	dw	16383

Data Sizes:
    Strings     0
    Constant    0
    Data        1
    BSS         15
    Persistent  34
    Stack       0

Auto Spaces:
    Space          Size  Autos    Used
    COMMON           14     10      12
    BANK0            80      4      20
    BANK1            80      0       0
    BANK2            80      0       0
    BANK3            80      0       0
    BANK4            80      0       0
    BANK5            80      0       0
    BANK6            80      0       0
    BANK7            80      0       0
    BANK8            80      0       0
    BANK9            80      0       0
    BANK10           80      0       0
    BANK11           80      0       0
    BANK12           48      0       0

Pointer List with Targets:

    TMR0_SetInterruptHandler@InterruptHandler	PTR FTN()void  size(2) Largest target is 1
		 -> My_InterruptHandler(), TMR0_DefaultInterruptHandler(), 

    TMR0_InterruptHandler	PTR FTN()void  size(2) Largest target is 1
		 -> My_InterruptHandler(), Absolute function(), TMR0_DefaultInterruptHandler(), 


Critical Paths under _main in COMMON

    _main->_process
    _process->_blink
    _initializing->_blink
    _blink->_get_Zyklus
    _ZYKLUS_Initialize->_TMR0_SetInterruptHandler
    _TMR0_Initialize->_TMR0_SetInterruptHandler

Critical Paths under _INTERRUPT_InterruptManager in COMMON

    _TMR0_ISR->_My_InterruptHandler

Critical Paths under _main in BANK0

    _process->_blink
    _initializing->_blink

Critical Paths under _INTERRUPT_InterruptManager in BANK0

    None.

Critical Paths under _main in BANK1

    None.

Critical Paths under _INTERRUPT_InterruptManager in BANK1

    None.

Critical Paths under _main in BANK2

    None.

Critical Paths under _INTERRUPT_InterruptManager in BANK2

    None.

Critical Paths under _main in BANK3

    None.

Critical Paths under _INTERRUPT_InterruptManager in BANK3

    None.

Critical Paths under _main in BANK4

    None.

Critical Paths under _INTERRUPT_InterruptManager in BANK4

    None.

Critical Paths under _main in BANK5

    None.

Critical Paths under _INTERRUPT_InterruptManager in BANK5

    None.

Critical Paths under _main in BANK6

    None.

Critical Paths under _INTERRUPT_InterruptManager in BANK6

    None.

Critical Paths under _main in BANK7

    None.

Critical Paths under _INTERRUPT_InterruptManager in BANK7

    None.

Critical Paths under _main in BANK8

    None.

Critical Paths under _INTERRUPT_InterruptManager in BANK8

    None.

Critical Paths under _main in BANK9

    None.

Critical Paths under _INTERRUPT_InterruptManager in BANK9

    None.

Critical Paths under _main in BANK10

    None.

Critical Paths under _INTERRUPT_InterruptManager in BANK10

    None.

Critical Paths under _main in BANK11

    None.

Critical Paths under _INTERRUPT_InterruptManager in BANK11

    None.

Critical Paths under _main in BANK12

    None.

Critical Paths under _INTERRUPT_InterruptManager in BANK12

    None.

Call Graph Tables:

 ---------------------------------------------------------------------------------
 (Depth) Function   	        Calls       Base Space   Used Autos Params    Refs
 ---------------------------------------------------------------------------------
 (0) _main                                                 0     0      0    1396
                       _initializing
                            _process
                          _readInput
                        _writeOutput
 ---------------------------------------------------------------------------------
 (1) _writeOutput                                          0     0      0       0
 ---------------------------------------------------------------------------------
 (1) _readInput                                            1     1      0       0
                                              2 COMMON     1     1      0
 ---------------------------------------------------------------------------------
 (1) _process                                              1     1      0     524
                                              9 COMMON     1     1      0
                              _blink
 ---------------------------------------------------------------------------------
 (1) _initializing                                         0     0      0     872
                  _SYSTEM_Initialize
                  _ZYKLUS_Initialize
                              _blink
                         _get_Zyklus
                        _get_Zyklus1
                        _get_Zyklus2
                       _reset_Zyklus
                      _reset_Zyklus1
                      _reset_Zyklus2
 ---------------------------------------------------------------------------------
 (2) _reset_Zyklus2                                        1     1      0       0
                                              2 COMMON     1     1      0
                               _sync
 ---------------------------------------------------------------------------------
 (2) _reset_Zyklus1                                        1     1      0       0
                                              2 COMMON     1     1      0
                               _sync
 ---------------------------------------------------------------------------------
 (2) _get_Zyklus2                                          1     1      0       0
                                              2 COMMON     1     1      0
                               _sync
 ---------------------------------------------------------------------------------
 (2) _get_Zyklus1                                          1     1      0       0
                                              2 COMMON     1     1      0
                               _sync
 ---------------------------------------------------------------------------------
 (2) _blink                                                8     4      4     524
                                              5 COMMON     4     0      4
                                              0 BANK0      4     4      0
                         _get_Zyklus
                       _reset_Zyklus
 ---------------------------------------------------------------------------------
 (3) _reset_Zyklus                                         1     1      0       0
                                              2 COMMON     1     1      0
                               _sync
 ---------------------------------------------------------------------------------
 (3) _get_Zyklus                                           3     1      2       0
                                              2 COMMON     3     1      2
                               _sync
 ---------------------------------------------------------------------------------
 (4) _sync                                                 0     0      0       0
 ---------------------------------------------------------------------------------
 (2) _ZYKLUS_Initialize                                    0     0      0     174
           _TMR0_SetInterruptHandler
                    _TMR0_StartTimer
 ---------------------------------------------------------------------------------
 (3) _TMR0_StartTimer                                      0     0      0       0
 ---------------------------------------------------------------------------------
 (2) _SYSTEM_Initialize                                    0     0      0     174
              _OSCILLATOR_Initialize
             _PIN_MANAGER_Initialize
                     _PMD_Initialize
                    _TMR0_Initialize
 ---------------------------------------------------------------------------------
 (3) _TMR0_Initialize                                      0     0      0     174
           _TMR0_SetInterruptHandler
 ---------------------------------------------------------------------------------
 (3) _TMR0_SetInterruptHandler                             2     0      2     174
                                              2 COMMON     2     0      2
 ---------------------------------------------------------------------------------
 (3) _PMD_Initialize                                       0     0      0       0
 ---------------------------------------------------------------------------------
 (3) _PIN_MANAGER_Initialize                               0     0      0       0
 ---------------------------------------------------------------------------------
 (3) _OSCILLATOR_Initialize                                0     0      0       0
 ---------------------------------------------------------------------------------
 Estimated maximum stack depth 4
 ---------------------------------------------------------------------------------
 (Depth) Function   	        Calls       Base Space   Used Autos Params    Refs
 ---------------------------------------------------------------------------------
 (5) _INTERRUPT_InterruptManager                           0     0      0       0
                           _TMR0_ISR
 ---------------------------------------------------------------------------------
 (6) _TMR0_ISR                                             0     0      0       0
                   Absolute function *
                _My_InterruptHandler *
       _TMR0_DefaultInterruptHandler *
 ---------------------------------------------------------------------------------
 (7) _TMR0_DefaultInterruptHandler                         0     0      0       0
 ---------------------------------------------------------------------------------
 (7) _My_InterruptHandler                                  2     2      0       0
                                              0 COMMON     2     2      0
 ---------------------------------------------------------------------------------
 (7) Absolute function(Fake)                               0     0      0       0
 ---------------------------------------------------------------------------------
 Estimated maximum stack depth 7
 ---------------------------------------------------------------------------------

 Call Graph Graphs:

 _main (ROOT)
   _initializing
     _SYSTEM_Initialize
       _OSCILLATOR_Initialize
       _PIN_MANAGER_Initialize
       _PMD_Initialize
       _TMR0_Initialize
         _TMR0_SetInterruptHandler
     _ZYKLUS_Initialize
       _TMR0_SetInterruptHandler
       _TMR0_StartTimer
     _blink
       _get_Zyklus
         _sync
       _reset_Zyklus
         _sync
     _get_Zyklus
       _sync
     _get_Zyklus1
       _sync
     _get_Zyklus2
       _sync
     _reset_Zyklus
       _sync
     _reset_Zyklus1
       _sync
     _reset_Zyklus2
       _sync
   _process
     _blink
       _get_Zyklus
         _sync
       _reset_Zyklus
         _sync
   _readInput
   _writeOutput

 _INTERRUPT_InterruptManager (ROOT)
   _TMR0_ISR
     Absolute function(Fake) *
     _My_InterruptHandler *
     _TMR0_DefaultInterruptHandler *

 Address spaces:
Name               Size   Autos  Total    Cost      Usage
BIGRAM             3F0      0       0       0        0.0%
NULL                 0      0       0       0        0.0%
CODE                 0      0       0       0        0.0%
BITCOMMON            E      0       0       1        0.0%
BITSFR0              0      0       0       1        0.0%
SFR0                 0      0       0       1        0.0%
COMMON               E      A       C       2       85.7%
BITSFR1              0      0       0       2        0.0%
SFR1                 0      0       0       2        0.0%
BITSFR2              0      0       0       3        0.0%
SFR2                 0      0       0       3        0.0%
STACK                0      0       0       3        0.0%
BITSFR3              0      0       0       4        0.0%
SFR3                 0      0       0       4        0.0%
ABS                  0      0      20       4        0.0%
BITBANK0            50      0       0       5        0.0%
BITSFR4              0      0       0       5        0.0%
SFR4                 0      0       0       5        0.0%
BANK0               50      4      14       6       25.0%
BITSFR5              0      0       0       6        0.0%
SFR5                 0      0       0       6        0.0%
BITBANK1            50      0       0       7        0.0%
BITSFR6              0      0       0       7        0.0%
SFR6                 0      0       0       7        0.0%
BANK1               50      0       0       8        0.0%
BITSFR7              0      0       0       8        0.0%
SFR7                 0      0       0       8        0.0%
BITBANK2            50      0       0       9        0.0%
BITSFR8              0      0       0       9        0.0%
SFR8                 0      0       0       9        0.0%
BANK2               50      0       0      10        0.0%
BITSFR9              0      0       0      10        0.0%
SFR9                 0      0       0      10        0.0%
BITBANK3            50      0       0      11        0.0%
BITSFR10             0      0       0      11        0.0%
SFR10                0      0       0      11        0.0%
BANK3               50      0       0      12        0.0%
BITSFR11             0      0       0      12        0.0%
SFR11                0      0       0      12        0.0%
BITBANK4            50      0       0      13        0.0%
BITSFR12             0      0       0      13        0.0%
SFR12                0      0       0      13        0.0%
BANK4               50      0       0      14        0.0%
BITSFR13             0      0       0      14        0.0%
SFR13                0      0       0      14        0.0%
BITBANK5            50      0       0      15        0.0%
BITSFR14             0      0       0      15        0.0%
SFR14                0      0       0      15        0.0%
BANK5               50      0       0      16        0.0%
BITSFR15             0      0       0      16        0.0%
SFR15                0      0       0      16        0.0%
BITBANK6            50      0       0      17        0.0%
BITSFR16             0      0       0      17        0.0%
SFR16                0      0       0      17        0.0%
BANK6               50      0       0      18        0.0%
BITSFR17             0      0       0      18        0.0%
SFR17                0      0       0      18        0.0%
BITBANK7            50      0       0      19        0.0%
BITSFR18             0      0       0      19        0.0%
SFR18                0      0       0      19        0.0%
BANK7               50      0       0      20        0.0%
BITSFR19             0      0       0      20        0.0%
SFR19                0      0       0      20        0.0%
BITBANK8            50      0       0      21        0.0%
BITSFR20             0      0       0      21        0.0%
SFR20                0      0       0      21        0.0%
BANK8               50      0       0      22        0.0%
BITSFR21             0      0       0      22        0.0%
SFR21                0      0       0      22        0.0%
BITBANK9            50      0       0      23        0.0%
BITSFR22             0      0       0      23        0.0%
SFR22                0      0       0      23        0.0%
BANK9               50      0       0      24        0.0%
BITSFR23             0      0       0      24        0.0%
SFR23                0      0       0      24        0.0%
BITBANK10           50      0       0      25        0.0%
BITSFR24             0      0       0      25        0.0%
SFR24                0      0       0      25        0.0%
BANK10              50      0       0      26        0.0%
BITSFR25             0      0       0      26        0.0%
SFR25                0      0       0      26        0.0%
BITBANK11           50      0       0      27        0.0%
BITSFR26             0      0       0      27        0.0%
SFR26                0      0       0      27        0.0%
BANK11              50      0       0      28        0.0%
BITSFR27             0      0       0      28        0.0%
SFR27                0      0       0      28        0.0%
BITBANK12           30      0       0      29        0.0%
BITSFR28             0      0       0      29        0.0%
SFR28                0      0       0      29        0.0%
BANK12              30      0       0      30        0.0%
BITSFR29             0      0       0      30        0.0%
SFR29                0      0       0      30        0.0%
BITSFR30             0      0       0      31        0.0%
SFR30                0      0       0      31        0.0%
DATA                 0      0      20      31        0.0%
BITSFR31             0      0       0      32        0.0%
SFR31                0      0       0      32        0.0%
BITSFR32             0      0       0      33        0.0%
SFR32                0      0       0      33        0.0%
BITSFR33             0      0       0      34        0.0%
SFR33                0      0       0      34        0.0%
BITSFR34             0      0       0      35        0.0%
SFR34                0      0       0      35        0.0%
BITSFR35             0      0       0      36        0.0%
SFR35                0      0       0      36        0.0%
BITSFR36             0      0       0      37        0.0%
SFR36                0      0       0      37        0.0%
BITSFR37             0      0       0      38        0.0%
SFR37                0      0       0      38        0.0%
BITSFR38             0      0       0      39        0.0%
SFR38                0      0       0      39        0.0%
BITSFR39             0      0       0      40        0.0%
SFR39                0      0       0      40        0.0%
BITSFR40             0      0       0      41        0.0%
SFR40                0      0       0      41        0.0%
BITSFR41             0      0       0      42        0.0%
SFR41                0      0       0      42        0.0%
BITSFR42             0      0       0      43        0.0%
SFR42                0      0       0      43        0.0%
BITSFR43             0      0       0      44        0.0%
SFR43                0      0       0      44        0.0%
BITSFR44             0      0       0      45        0.0%
SFR44                0      0       0      45        0.0%
BITSFR45             0      0       0      46        0.0%
SFR45                0      0       0      46        0.0%
BITSFR46             0      0       0      47        0.0%
SFR46                0      0       0      47        0.0%
BITSFR47             0      0       0      48        0.0%
SFR47                0      0       0      48        0.0%
BITSFR48             0      0       0      49        0.0%
SFR48                0      0       0      49        0.0%
BITSFR49             0      0       0      50        0.0%
SFR49                0      0       0      50        0.0%
BITSFR50             0      0       0      51        0.0%
SFR50                0      0       0      51        0.0%
BITSFR51             0      0       0      52        0.0%
SFR51                0      0       0      52        0.0%
BITSFR52             0      0       0      53        0.0%
SFR52                0      0       0      53        0.0%
BITSFR53             0      0       0      54        0.0%
SFR53                0      0       0      54        0.0%
BITSFR54             0      0       0      55        0.0%
SFR54                0      0       0      55        0.0%
BITSFR55             0      0       0      56        0.0%
SFR55                0      0       0      56        0.0%
BITSFR56             0      0       0      57        0.0%
SFR56                0      0       0      57        0.0%
BITSFR57             0      0       0      58        0.0%
SFR57                0      0       0      58        0.0%
BITSFR58             0      0       0      59        0.0%
SFR58                0      0       0      59        0.0%
BITSFR59             0      0       0      60        0.0%
SFR59                0      0       0      60        0.0%
BITSFR60             0      0       0      61        0.0%
SFR60                0      0       0      61        0.0%
BITSFR61             0      0       0      62        0.0%
SFR61                0      0       0      62        0.0%
BITSFR62             0      0       0      63        0.0%
SFR62                0      0       0      63        0.0%
BITSFR63             0      0       0      64        0.0%
SFR63                0      0       0      64        0.0%


Microchip Technology PIC Macro Assembler V2.31 build 20201012212115 
Symbol Table                                                                                   Fri Mar 05 11:57:38 2021

                                      l51 01B7                                        l54 01BF  
                                      l48 0189                                       l103 00BE  
                                     l200 01CB                                       l132 01DE  
                                     l205 00FF                                       l214 0066  
                                     l151 01D7                                       l208 01DB  
                                     l129 012B                                       l235 017C  
                                     l252 0117                                       l261 0151  
                                     l246 01D1                                       l270 013E  
                                     l255 01AD                                       l264 01A1  
                                     l273 0195                                       l194 0155  
                                     l189 00E0                                       l811 00A1  
                                     l821 00B4                                       l813 00A5  
                                     l805 01B8                                       l831 01AE  
                                     l823 00B6                                       l815 00A7  
                                     l807 009A                                       l833 01B1  
                                     l825 00B8                                       l817 00B0  
                                     l809 009F                                       l835 01B2  
                                     l827 00BA                                       l819 00B2  
                                     l837 01B5                                       l829 00BC  
                                     l853 01DC                                       l839 01B6  
                                     u140 01D1                                       u300 00E7  
                                     u141 01D0                                       u301 00E6  
                                     u150 0108                                       u310 00FB  
                                     u151 0107                                       u311 00FA  
                                     u160 0147                                       u161 0146  
                                     u170 0134                                       u171 0133  
                                     u270 0037                                       u271 0036  
                                     u280 0049                                       u281 0048  
                                     u290 0061                                       u291 0060  
                                     u275 0033                                       u285 0045  
                                     u295 005D                   __size_of_PMD_Initialize 0008  
                                     wreg 0009                                      l1011 01CC  
                                    l1021 0121                                      l1013 0118  
                                    l1007 01D2                                      l1023 0128  
                                    l1015 011D                                      l1031 0109  
                                    l1017 011E                                      l1009 01CC  
                                    l1033 010E                                      l1025 0100  
                                    l1041 01A5                                      l1019 0120  
                                    l1051 0183                                      l1035 0112  
                                    l1027 0103                                      l1043 01A6  
                                    l1053 0186                                      l1029 0108  
                                    l1045 01A9                                      l1061 013F  
                                    l1047 017D                                      l1055 0170  
                                    l1039 01A2                                      l1063 0142  
                                    l1049 0180                                      l1057 0172  
                                    l1065 0147                                      l1081 013A  
                                    l1073 012C                                      l1059 0179  
                                    l1171 0037                                      l1067 0148  
                                    l1075 012F                                      l1091 019D  
                                    l1147 01C6                                      l1181 0064  
                                    l1173 003C                                      l1069 014D  
                                    l1077 0134                                      l1085 0196  
                                    l1093 018A                                      l1157 01D8  
                                    l1175 0049                                      l1167 0027  
                                    l1079 0135                                      l1087 0199  
                                    l1095 018D                                      l1191 00F6  
                                    l1177 004C                                      l1169 002A  
                                    l1089 019A                                      l1097 018E  
                                    l1185 00BF                                      l1193 00FB  
                                    l1179 0061                                      l1099 0191  
                                    l1187 00E1                                      l1195 0152  
                                    l1189 00E7                                      _LATA 0018  
                                    _LATB 0019                                      _LATC 001A  
                                    _PMD0 0796                                      i1l13 0012  
                                    _PMD1 0797                                      _PMD2 0798  
                                    _PMD3 0799                                      _PMD4 079A  
                                    _PMD5 079B                                      _WPUA 1F39  
                                    _WPUB 1F44                                      _WPUC 1F4F  
                                    _WPUE 1F65                                      _main 0152  
                         _TMR0_StartTimer 01DC                                      fsr0h 0005  
                                    indf0 0000                                      fsr0l 0004  
                                    btemp 007E                                      _sync 01CC  
                                    start 0014                __size_of_ZYKLUS_Initialize 000D  
                 __end_of_TMR0_Initialize 012C            ??_TMR0_DefaultInterruptHandler 0070  
          __size_of_OSCILLATOR_Initialize 000A             __end_of_OSCILLATOR_Initialize 01B8  
                                   ?_main 0070                                     ?_sync 0070  
                                   i1l240 0099                                     i1l154 01E0  
                                   i1l148 016F                                     _OSCEN 0891  
                                   u21_20 006C                                     u21_21 006B  
                                   u22_20 016A                                     u22_21 0169  
                                   u25_20 000B                                     _TMR0H 059D  
                                   u25_21 000A                                     _TMR0L 059C  
                                   u26_20 000F                                     u26_21 000E  
                                   _PORTA 000C                                     _PORTC 000E  
                                   _TRISA 0012                                     _TRISB 0013  
                                   _TRISC 0014                               _writeOutput 01D8  
       __size_of_TMR0_SetInterruptHandler 0006                 ?_TMR0_SetInterruptHandler 0072  
                        __end_of_TMR0_ISR 0170                                     _blink 0027  
             __end_of_My_InterruptHandler 009A                                     pclath 000A  
                         __end_of_process 0100                                     status 0003  
                                   wtemp0 007E                           __initialization 0016  
                            __end_of_main 0161                              __end_of_sync 01D2  
             ?_INTERRUPT_InterruptManager 0070                                    ??_main 007A  
                                  ??_sync 0072                                    ?_blink 0075  
                 __end_of_TMR0_StartTimer 01DF                                    _ANSELA 1F38  
                                  _ANSELB 1F43                                    _ANSELC 1F4E  
                                  _T0CON0 059E                                    _T0CON1 059F  
                                  i1l1121 006C                                    i1l1131 0084  
                                  i1l1123 006D                                    i1l1133 008B  
                                  i1l1125 0075                                    i1l1141 0163  
                                  i1l1135 0090                                    i1l1127 0079  
                                  i1l1119 0067                                    i1l1143 016A  
                                  i1l1129 0080                                    i1l1137 0095  
                                  i1l1161 000B                                    i1l1139 0161  
                                  i1l1163 000F                                    i1l1159 0006  
                                  _ODCONA 1F3A                                    _ODCONB 1F45  
                                  _ODCONC 1F50                                    _INLVLA 1F3C  
                                  _INLVLB 1F47                                    _INLVLC 1F52  
                                  _INLVLE 1F68                                    _OSCFRQ 0893  
                    __size_of_get_Zyklus1 0013                      __size_of_get_Zyklus2 0013  
                           ?_initializing 0070                           get_Zyklus@kopie 0024  
                        ?_TMR0_Initialize 0070                                    _zyklen 002A  
                          _PMD_Initialize 01B8                              __pdataCOMMON 007B  
                               ??_process 0079  TMR0_SetInterruptHandler@InterruptHandler 0072  
                   __end_of_reset_Zyklus1 01A2                     __end_of_reset_Zyklus2 0196  
                       _SYSTEM_Initialize 017D                   __end_of__initialization 0023  
                      ?_SYSTEM_Initialize 0070                            ??_initializing 0079  
                          __pcstackCOMMON 0070                       ??_SYSTEM_Initialize 0074  
                               ?_TMR0_ISR 0070                             __end_of_blink 0067  
                  __end_of_PMD_Initialize 01C0                                   ??_blink 002E  
                        ?_TMR0_StartTimer 0070                 __end_of_SYSTEM_Initialize 018A  
                              __pbssBANK0 0020                        __size_of_readInput 0006  
                              __pmaintext 0152          __end_of_TMR0_SetInterruptHandler 01D8  
                              ??_TMR0_ISR 0072                                __pintentry 0004  
                         ?_PMD_Initialize 0070                              ?_writeOutput 0070  
                              _get_Zyklus 0100                                   _OSCCON1 088D  
                                 _OSCCON3 088F                                   _OSCSTAT 0890  
                                 _OSCTUNE 0892                                   _SLRCONA 1F3B  
                                 _SLRCONB 1F46                                   _SLRCONC 1F51  
                        get_Zyklus1@kopie 0022                          get_Zyklus2@kopie 0020  
                              _copyOutput 002D                             ?_reset_Zyklus 0070  
                                 _blocked 007A                                   __ptext1 01D8  
                                 __ptext2 01C6                                   __ptext3 00E1  
                                 __ptext4 00BF                                   __ptext5 018A  
                                 __ptext6 0196                                   __ptext7 012C  
                                 __ptext8 013F                                   __ptext9 0027  
                       __end_of_readInput 01CC                     _OSCILLATOR_Initialize 01AE  
                ??_PIN_MANAGER_Initialize 0072                      __end_of_initializing 00E1  
                                 _process 00E1                __size_of_SYSTEM_Initialize 000D  
                                 clrloop0 01C1                      end_of_initialization 0023  
                                 _zyklen1 0028                                   _zyklen2 0026  
                          ??_reset_Zyklus 0072              __size_of_My_InterruptHandler 0033  
                _TMR0_SetInterruptHandler 01D2                               ?_get_Zyklus 0072  
                           ??_get_Zyklus1 0072                             ??_get_Zyklus2 0072  
                           __pidataCOMMON 01DF                         __size_of_TMR0_ISR 000F  
                  ?_OSCILLATOR_Initialize 0070                       start_initialization 0016  
                __size_of_TMR0_Initialize 0014           __size_of_PIN_MANAGER_Initialize 0025  
                    __size_of_writeOutput 0004                       __size_of_get_Zyklus 0018  
                        ??_PMD_Initialize 0072                       __end_of_get_Zyklus1 0152  
                     __end_of_get_Zyklus2 013F                    __size_of_reset_Zyklus1 000C  
                  __size_of_reset_Zyklus2 000C                     __size_of_initializing 0022  
                    __end_of_reset_Zyklus 01AE                               __pbssCOMMON 007A  
                               ___latbits 0002                             __pcstackBANK0 002E  
                   _TMR0_InterruptHandler 0032                                 __pnvBANK0 0032  
                __size_of_TMR0_StartTimer 0003                    _PIN_MANAGER_Initialize 009A  
                            _initializing 00BF              ??_INTERRUPT_InterruptManager 0072  
                               _copyInput 002C                       _My_InterruptHandler 0067  
                                ?_process 0070                                 _readInput 01C6  
                          __size_of_blink 0040                             _reset_Zyklus1 0196  
                           _reset_Zyklus2 018A                         ??_TMR0_Initialize 0074  
                             _get_Zyklus1 013F                               _get_Zyklus2 012C  
                               clear_ram0 01C0                                  _PIE0bits 0716  
                    ?_My_InterruptHandler 0070                                 blink@tOff 0077  
     __size_of_INTERRUPT_InterruptManager 0010                ??_TMR0_SetInterruptHandler 0074  
                                _PIR0bits 070C                                  _TMR0_ISR 0161  
                            ??_get_Zyklus 0074                                ?_readInput 0070  
                          ?_reset_Zyklus1 0070                            ?_reset_Zyklus2 0070  
                   ??_My_InterruptHandler 0070                        __end_of_get_Zyklus 0118  
                   __size_of_reset_Zyklus 000C                   ??_OSCILLATOR_Initialize 0072  
                       ??_TMR0_StartTimer 0072                                _T0CON0bits 059E  
                                __ptext10 01A2                                  __ptext11 0100  
                                __ptext20 01AE                                  __ptext12 01CC  
                                __ptext13 0170                                  __ptext22 0161  
                                __ptext14 01DC                                  __ptext23 0067  
                                __ptext15 017D                                  __ptext24 01E0  
                                __ptext16 0118                                  __ptext17 01D2  
                                __ptext18 01B8                                  __ptext19 009A  
                        __size_of_process 001F                             __size_of_main 000F  
                           __size_of_sync 0006                              _reset_Zyklus 01A2  
    __end_of_TMR0_DefaultInterruptHandler 01E1     __size_of_TMR0_DefaultInterruptHandler 0001  
            _TMR0_DefaultInterruptHandler 01E0                                  blink@tOn 0075  
                       _ZYKLUS_Initialize 0170                                  int$flags 007E  
                      ?_ZYKLUS_Initialize 0070        __end_of_INTERRUPT_InterruptManager 0014  
              _INTERRUPT_InterruptManager 0004                                  _synchron 007B  
                           ??_writeOutput 0072                       ??_ZYKLUS_Initialize 0074  
                              _INTCONbits 000B                           ??_reset_Zyklus1 0072  
                         ??_reset_Zyklus2 0072                               ??_readInput 0072  
                                intlevel1 0000                               blink@status 0030  
                 ?_PIN_MANAGER_Initialize 0070                 __end_of_ZYKLUS_Initialize 017D  
           ?_TMR0_DefaultInterruptHandler 0070                           _TMR0_Initialize 0118  
                     __end_of_writeOutput 01DC            __end_of_PIN_MANAGER_Initialize 00BF  
                            ?_get_Zyklus1 0070                              ?_get_Zyklus2 0070  
